MPASM  5.44                      KEYPAD~1.ASM   4-20-2020  12:51:35         PAGE  1


LOC  OBJECT CODE     LINE SOURCE TEXT
  VALUE

                      00001 
                      00002 ; PICBASIC PRO(TM) Compiler 2.60, (c) 1998, 2009 microEngineering Labs, Inc. All Rights Reserved. 
  00000001            00003 _USED                   EQU     1
                      00004 
                      00005         INCLUDE "C:\PBP\16F877.INC"
                      00001 ;****************************************************************
                      00002 ;*  16F877.INC                                                  *
                      00003 ;*                                                              *
                      00004 ;*  By        : Leonard Zerman, Jeff Schmoyer                   *
                      00005 ;*  Notice    : Copyright (c) 2003 microEngineering Labs, Inc.  *
                      00006 ;*              All Rights Reserved                             *
                      00007 ;*  Date      : 11/07/03                                        *
                      00008 ;*  Version   : 2.45                                            *
                      00009 ;*  Notes     :                                                 *
                      00010 ;****************************************************************
                      00019         LIST
                      00020         LIST p = 16F877, r = dec, w = -302
                      00021         INCLUDE "P16F877.INC"   ; MPASM  Header
                      00001         LIST
                      00002 
                      00003 ;==========================================================================
                      00004 ;  MPASM PIC16F877 processor include
                      00005 ; 
                      00006 ;  (c) Copyright 1999-2012 Microchip Technology, All rights reserved
                      00007 ;==========================================================================
                      00008 
                      00540         LIST
2007   3F75           00022         __config _XT_OSC & _WDT_ON & _PWRTE_ON & _LVP_OFF & _CP_OFF
                      00025         LIST
                      00006 
                      00007 
                      00008 ; Define statements.
                      00009 ; C:\PBP\16F877.BAS             00018   DEFINE  CODE_SIZE 8
                      00010 #define         CODE_SIZE                8
                      00011 ; C:\PBP\LCDKOD.PBP             00002   DEFINE LCD_DREG PORTD           'LCD data portunun baglandigi pi
                            c portu 
                      00012 #define         LCD_DREG                 PORTD           
                      00013 ; C:\PBP\LCDKOD.PBP             00003   DEFINE LCD_DBIT 0                        '4-bit bus için data bi
                            t(0yada4) baslangiç
                      00014 #define         LCD_DBIT                 0                        
                      00015 ; C:\PBP\LCDKOD.PBP             00004   DEFINE LCD_RSREG PORTE          'LCD RS in baglandigi pic portu 
                      00016 #define         LCD_RSREG                PORTE          
                      00017 ; C:\PBP\LCDKOD.PBP             00005   DEFINE LCD_RSBIT 0                      'RS in baglandigi pic po
                            rtE nin bit numarasi
                      00018 #define         LCD_RSBIT                0                      
                      00019 ; C:\PBP\LCDKOD.PBP             00006   DEFINE LCD_EREG PORTE            'LCD E nin baglandigi pic portu
                             
                      00020 #define         LCD_EREG                 PORTE            
                      00021 ; C:\PBP\LCDKOD.PBP             00007   DEFINE LCD_EBIT 2                        'LCD E nin baglandigi p
                            ic portE nin bit numarasi
                      00022 #define         LCD_EBIT                 2                        
                      00023 ; C:\PBP\LCDKOD.PBP             00008   DEFINE LCD_BITS 8                             'PortD nin 8 biti 
                            veri transferi için kullanildi
MPASM  5.44                      KEYPAD~1.ASM   4-20-2020  12:51:35         PAGE  2


LOC  OBJECT CODE     LINE SOURCE TEXT
  VALUE

                      00024 #define         LCD_BITS                 8                             
                      00025 ; C:\PBP\KEYPAD~1.PBP           00003   define HSER_RCSTA 90h
                      00026 #define         HSER_RCSTA               90h
                      00027 ; C:\PBP\KEYPAD~1.PBP           00004   DEFINE HSER_TXSTA 24h
                      00028 #define         HSER_TXSTA               24h
                      00029 ; C:\PBP\KEYPAD~1.PBP           00005   DEFINE HSER_BAUD 9600    'terminaldeki haberleþme hýzý
                      00030 #define         HSER_BAUD                9600    
                      00031 ; C:\PBP\KEYPAD~1.PBP           00006   DEFINE HSER_CLROERR 1
                      00032 #define         HSER_CLROERR             1
                      00033 
  00000020            00034 RAM_START                       EQU     00020h
  000001EF            00035 RAM_END                         EQU     001EFh
  00000004            00036 RAM_BANKS                       EQU     00004h
  00000020            00037 BANK0_START                     EQU     00020h
  0000007F            00038 BANK0_END                       EQU     0007Fh
  000000A0            00039 BANK1_START                     EQU     000A0h
  000000EF            00040 BANK1_END                       EQU     000EFh
  00000110            00041 BANK2_START                     EQU     00110h
  0000016F            00042 BANK2_END                       EQU     0016Fh
  00000190            00043 BANK3_START                     EQU     00190h
  000001EF            00044 BANK3_END                       EQU     001EFh
  00002100            00045 EEPROM_START                    EQU     02100h
  000021FF            00046 EEPROM_END                      EQU     021FFh
                      00047 
                      00048 ; C:\PBP\PBPPIC14.RAM           00012   A00020  R0      VAR     WORD BANK0 SYSTEM       ' System Registe
                            r
  00000020            00049 R0                              EQU     RAM_START + 000h
                      00050 ; C:\PBP\PBPPIC14.RAM           00013   A00022  R1      VAR     WORD BANK0 SYSTEM       ' System Registe
                            r
  00000022            00051 R1                              EQU     RAM_START + 002h
                      00052 ; C:\PBP\PBPPIC14.RAM           00014   A00024  R2      VAR     WORD BANK0 SYSTEM       ' System Registe
                            r
  00000024            00053 R2                              EQU     RAM_START + 004h
                      00054 ; C:\PBP\PBPPIC14.RAM           00015   A00026  R3      VAR     WORD BANK0 SYSTEM       ' System Registe
                            r
  00000026            00055 R3                              EQU     RAM_START + 006h
                      00056 ; C:\PBP\PBPPIC14.RAM           00016   A00028  R4      VAR     WORD BANK0 SYSTEM       ' System Registe
                            r
  00000028            00057 R4                              EQU     RAM_START + 008h
                      00058 ; C:\PBP\PBPPIC14.RAM           00017   A0002A  R5      VAR     WORD BANK0 SYSTEM       ' System Registe
                            r
  0000002A            00059 R5                              EQU     RAM_START + 00Ah
                      00060 ; C:\PBP\PBPPIC14.RAM           00018   A0002C  R6      VAR     WORD BANK0 SYSTEM       ' System Registe
                            r
  0000002C            00061 R6                              EQU     RAM_START + 00Ch
                      00062 ; C:\PBP\PBPPIC14.RAM           00019   A0002E  R7      VAR     WORD BANK0 SYSTEM       ' System Registe
                            r
  0000002E            00063 R7                              EQU     RAM_START + 00Eh
                      00064 ; C:\PBP\PBPPIC14.RAM           00020   A00030  R8      VAR     WORD BANK0 SYSTEM       ' System Registe
                            r
  00000030            00065 R8                              EQU     RAM_START + 010h
                      00066 ; C:\PBP\PBPPIC14.RAM           00026   A00032  FLAGS   VAR     BYTE BANK0 SYSTEM       ' Static flags
  00000032            00067 FLAGS                           EQU     RAM_START + 012h
MPASM  5.44                      KEYPAD~1.ASM   4-20-2020  12:51:35         PAGE  3


LOC  OBJECT CODE     LINE SOURCE TEXT
  VALUE

                      00068 ; C:\PBP\PBPPIC14.RAM           00025   A00033  GOP     VAR     BYTE BANK0 SYSTEM       ' Gen Op Paramet
                            er
  00000033            00069 GOP                             EQU     RAM_START + 013h
                      00070 ; C:\PBP\PBPPIC14.RAM           00022   A00034  RM1     VAR     BYTE BANK0 SYSTEM       ' Pin 1 Mask
  00000034            00071 RM1                             EQU     RAM_START + 014h
                      00072 ; C:\PBP\PBPPIC14.RAM           00024   A00035  RM2     VAR     BYTE BANK0 SYSTEM       ' Pin 2 Mask
  00000035            00073 RM2                             EQU     RAM_START + 015h
                      00074 ; C:\PBP\PBPPIC14.RAM           00021   A00036  RR1     VAR     BYTE BANK0 SYSTEM       ' Pin 1 Register
  00000036            00075 RR1                             EQU     RAM_START + 016h
                      00076 ; C:\PBP\PBPPIC14.RAM           00023   A00037  RR2     VAR     BYTE BANK0 SYSTEM       ' Pin 2 Register
  00000037            00077 RR2                             EQU     RAM_START + 017h
                      00078 ; C:\PBP\KEYPAD~1.PBP           00015   A00038  i var byte
  00000038            00079 _i                              EQU     RAM_START + 018h
                      00080 ; C:\PBP\KEYPAD~1.PBP           00016   A00039  j var byte
  00000039            00081 _j                              EQU     RAM_START + 019h
                      00082 ; C:\PBP\KEYPAD~1.PBP           00017   A0003A  k var byte
  0000003A            00083 _k                              EQU     RAM_START + 01Ah
                      00084 ; C:\PBP\KEYPAD~1.PBP           00018   A0003B  l var byte
  0000003B            00085 _l                              EQU     RAM_START + 01Bh
                      00086 ; C:\PBP\16F877.BAS             00022   PORTL   VAR     PORTB
  00000006            00087 _PORTL                          EQU      PORTB
                      00088 ; C:\PBP\16F877.BAS             00023   PORTH   VAR     PORTC
  00000007            00089 _PORTH                          EQU      PORTC
                      00090 ; C:\PBP\16F877.BAS             00024   TRISL   VAR     TRISB
  00000086            00091 _TRISL                          EQU      TRISB
                      00092 ; C:\PBP\16F877.BAS             00025   TRISH   VAR     TRISC
  00000087            00093 _TRISH                          EQU      TRISC
                      00094 #define _PORTE??1                PORTE, 001h
                      00095 #define _PORTB??0                PORTB, 000h
                      00096 #define _PORTB??1                PORTB, 001h
                      00097 #define _PORTB??2                PORTB, 002h
                      00098 #define _PORTB??3                PORTB, 003h
                      00099 #define _PORTB??4                PORTB, 004h
                      00100 #define _PORTB??5                PORTB, 005h
                      00101 #define _PORTB??6                PORTB, 006h
                      00102         INCLUDE "KEYPAD~1.MAC"
                      00001 
                      00194         LIST
                      00103         INCLUDE "C:\PBP\PBPPIC14.LIB"
                      00001 ;******************************************************************
                      00002 ;*  PBPPIC14.LIB                                                  *
                      00003 ;*                                                                *
                      00004 ;*  By        : Leonard Zerman, Jeff Schmoyer                     *
                      00005 ;*  Notice    : Copyright (c) 2009 microEngineering Labs, Inc.    *
                      00006 ;*              All Rights Reserved                               *
                      00007 ;*  Date      : 07/08/09                                          *
                      00008 ;*  Version   : 2.60                                              *
                      00009 ;*  Notes     :                                                   *
                      00010 ;******************************************************************
                      00054   LIST
                      00055 ; Oscillator is 4MHz
                      01133   LIST
0000                  01134     ORG RESET_ORG               ; Reset vector usually at 0
MPASM  5.44                      KEYPAD~1.ASM   4-20-2020  12:51:35         PAGE  4


LOC  OBJECT CODE     LINE SOURCE TEXT
  VALUE

                      01144   LIST
0000   01B2           01145         clrf    FLAGS           ; Clear all flags on reset
                      01149   LIST
0001   28FC           01150         goto    INIT            ; Finish initialization
                      02400   LIST
0002   0804           02401 HSEROUTJ movf   FSR, W          ; Jumpman entry
                      02407   LIST
                      02408 HSEROUT CLRWDT?                 ; Keep Watchdog clear
                          M     ifndef NO_CLRWDT
0003   0064               M         clrwdt
                          M     endif
0004   1E0C           02409         btfss   PIR1, TXIF      ; Wait till ready
0005   2803           02410         goto    HSEROUT
                      02411 
                      02412       ifdef HSERPARITY_USED
                      02413           if (HSER_BITS != 9)
                      02414         andlw   7fh             ; Clear top bit
                      02415         call    HSERPARITY      ; Calculate the parity
                      02416             ifdef HSER_ODD
                      02417         btfss   GOP, 0
                      02418             else
                      02419         btfsc   GOP, 0
                      02420             endif
                      02421         iorlw   80h             ; Set parity
                      02422           else
                      02423         call    HSERPARITY      ; Calculate the parity
                      02424         rrf     GOP, F          ; Move the parity bit to C
                      02425             if (TXSTA > 7fh)
                      02426         bsf     STATUS, RP0     ; Switch to bank 1
                      02427             endif
                      02428         bcf     TXSTA, TX9D     ; Start parity at 0
                      02429             ifdef HSER_ODD
                      02430         btfss   STATUS, C
                      02431             else
                      02432         btfsc   STATUS, C
                      02433             endif
                      02434         bsf     TXSTA, TX9D     ; Set parity in 9th bit
                      02435             if (TXSTA > 7fh)
                      02436         bcf     STATUS, RP0     ; Switch back to bank 0
                      02437             endif
                      02438           endif
                      02439       endif
                      02440 
0006   0099           02441         movwf   TXREG           ; Send the char
0007   1403           02442         bsf     STATUS, C       ; Set no timeout for Serout2mod
0008   28F7           02443         goto    DONE            ; That's it
                      02865   LIST
0009   01A5           02866 LCDOUTDEC clrf  R2 + 1          ; Zero high value
                      02872   LIST
000A   00A4           02873 LCDOUTDECL movwf R2             ; Save low value
000B   17B3           02874         bsf     GOP, 7          ; Set blanking on
000C   3027           02875         movlw   high 10000      ; Find 10,000s
000D   00A3           02876         movwf   R1 + 1
MPASM  5.44                      KEYPAD~1.ASM   4-20-2020  12:51:35         PAGE  5


LOC  OBJECT CODE     LINE SOURCE TEXT
  VALUE

000E   3010           02877         movlw   low 10000
000F   201C           02878         call    lcdoutdig       ; Do the work
0010   3003           02879         movlw   high 1000       ; Find 1,000s
0011   00A3           02880         movwf   R1 + 1
0012   30E8           02881         movlw   low 1000
0013   201C           02882         call    lcdoutdig       ; Do the work
0014   01A3           02883         clrf    R1 + 1          ; Find 100s
0015   3064           02884         movlw   100
0016   201C           02885         call    lcdoutdig       ; Do the work
0017   01A3           02886         clrf    R1 + 1          ; Find 10s
0018   300A           02887         movlw   10
0019   201C           02888         call    lcdoutdig       ; Do the work
001A   0824           02889         movf    R2, W           ; Get the 1s
001B   2827           02890         goto    lcdouta         ; Send the 1s
                      02891 
001C   00A2           02892 lcdoutdig movwf R1              ; Save last piece
001D   0825           02893         movf    R2 + 1, W       ; Move remainder to dividend
001E   00A1           02894         movwf   R0 + 1
001F   0824           02895         movf    R2, W
0020   00A0           02896         movwf   R0
0021   20D6           02897         call    DIV             ; Do the math
0022   0820           02898         movf    R0, W           ; Get the result
0023   1D03           02899         btfss   STATUS, Z       ; If zero, goto blank check
0024   13B3           02900         bcf     GOP, 7          ; Not zero so clear blank
0025   1BB3           02901         btfsc   GOP, 7          ; If blanking on, don't send
0026   0008           02902         return
0027   3E30           02903 lcdouta addlw   '0'             ; Add ASCII offset
                      02931   LIST
0028   00A7           02932 LCDOUT  movwf   R3 + 1          ; Save char
                      02933 
0029   1109           02934         bcf     LCD_EREG, LCD_EBIT      ; Set E low
002A   1009           02935         bcf     LCD_RSREG, LCD_RSBIT    ; Set command register select
002B   1009           02936         bcf     LCD_RWREG, LCD_RWBIT    ; Set RW low (write)
                      02937 
002C   1683           02938         bsf     STATUS, RP0     ; Point to TRISes
002D   1109           02939         bcf     LCD_EREG, LCD_EBIT      ; Set E to output
002E   1009           02940         bcf     LCD_RSREG, LCD_RSBIT    ; Set RS to output
002F   1009           02941         bcf     LCD_RWREG, LCD_RWBIT    ; Set RW to output
                      02942     if ((LCD_BITS) == 8)
0030   0188           02943         clrf    LCD_DREG        ; Set port to all output
                      02944     else
                      02945       if ((LCD_DBIT) == 0)
                      02946         movlw   0f0h
                      02947       else
                      02948         movlw   0fh
                      02949       endif
                      02950         andwf   LCD_DREG, F     ; Set proper half of port to output
                      02951     endif
0031   1283           02952         bcf     STATUS, RP0     ; Point back to ports
                      02953 
0032   0827           02954         movf    R3 + 1, W       ; Get back char
                      02955 
0033   18B2           02956         btfsc   LCDINITFLAG     ; Has lcd been inititalized?
MPASM  5.44                      KEYPAD~1.ASM   4-20-2020  12:51:35         PAGE  6


LOC  OBJECT CODE     LINE SOURCE TEXT
  VALUE

0034   2850           02957         goto    lcdout1         ; Yes
                      02958 
0035   303A           02959         movlw   high 15100      ; Wait at least 15ms
0036   00A1           02960         movwf   R0 + 1
0037   30FC           02961         movlw   low 15100
0038   20C2           02962         call    PAUSEUSL
                      02963 
0039   3033           02964         movlw   33h             ; Init lcd
003A   00A6           02965         movwf   R3              ; Save char
003B   2063           02966         call    lcdloop         ; Send init
                      02967 
003C   3010           02968         movlw   high 4200       ; Wait at least 4.1ms
003D   00A1           02969         movwf   R0 + 1
003E   3068           02970         movlw   low 4200
003F   20C2           02971         call    PAUSEUSL
                      02972 
0040   2063           02973         call    lcdloop         ; Send init (33) again
                      02974 
0041   3064           02975         movlw   100             ; Wait at least 100us
0042   20C1           02976         call    PAUSEUS
                      02977 
                      02978     if ((LCD_BITS) == 8)
0043   2063           02979         call    lcdloop         ; Send init (33) one more time
                      02980       if ((LCD_LINES) == 1)
                      02981         movlw   30h             ; 8-bit mode, 1 line, 5x7 font
                      02982       else
0044   3038           02983         movlw   38h             ; 8-bit mode, 2+ lines, 5x7 font
                      02984       endif
                      02985     else
                      02986         movlw   22h             ; Send init to 4-bit mode
                      02987         movwf   R3              ; Save character
                      02988         call    lcdloop         ; Set interface to 4-bit mode
                      02989       if ((LCD_LINES) == 1)
                      02990         movlw   20h             ; 4-bit mode, 1 line, 5x7 font
                      02991       else
                      02992         movlw   28h             ; 4-bit mode, 2+ lines, 5x7 font
                      02993       endif
                      02994     endif
0045   204F           02995         call    lcdoutcom       ; Send function set
                      02996 
0046   300C           02997         movlw   0ch             ; Display on, no cursor, no blink
0047   204F           02998         call    lcdoutcom
                      02999 
0048   3001           03000         movlw   01h             ; Display clear
0049   204F           03001         call    lcdoutcom
                      03002 
004A   3006           03003         movlw   06h             ; Lcd entry mode set, increment, no shift
004B   204F           03004         call    lcdoutcom
                      03005 
004C   14B2           03006         bsf     LCDINITFLAG     ; Set to initialized
                      03007 
004D   0827           03008         movf    R3 + 1, W       ; Get saved char back (again)
004E   2850           03009         goto    lcdout1
MPASM  5.44                      KEYPAD~1.ASM   4-20-2020  12:51:35         PAGE  7


LOC  OBJECT CODE     LINE SOURCE TEXT
  VALUE

                      03010 
004F   1432           03011 lcdoutcom bsf   LCDCDFLAG       ; Set for command
                      03012 
0050   00A6           03013 lcdout1 movwf   R3              ; Save char
0051   1C32           03014         btfss   LCDCDFLAG       ; Command this time?
0052   285E           03015         goto    lcdchkcd        ; No
                      03016 
0053   1009           03017         bcf     LCD_RSREG, LCD_RSBIT    ; Set command register select
0054   3C03           03018         sublw   3               ; Is it a slow command (clear screen or home)?
0055   1C03           03019         btfss   STATUS, C       ; Long or short delay?
0056   2863           03020         goto    lcdsend         ; Short delay
                      03021 
0057   2063           03022         call    lcdsend         ; Long delay (includes short delay)
0058   3007           03023         movlw   high LCD_COMMANDUS      ; Wait for command to complete
0059   00A1           03024         movwf   R0 + 1
005A   30D0           03025         movlw   low LCD_COMMANDUS
005B   20C2           03026         call    PAUSEUSL
005C   1403           03027         bsf     STATUS, C       ; Set no timeout for Serout2mod
005D   0008           03028         return
                      03029 
005E   1432           03030 lcdchkcd bsf    LCDCDFLAG       ; Indicate first nibble (or command next time)
005F   3CFE           03031         sublw   0feh            ; Command next time? (char still in W)
0060   1903           03032         btfsc   STATUS, Z
0061   28F7           03033         goto    DONE            ; Yes - nothing to do this time (C set for no timeout for Serout2mod)
                      03034 
0062   1409           03035         bsf     LCD_RSREG, LCD_RSBIT    ; Set data register select
                      03036 
0063                  03037 lcdsend
                      03038     if ((LCD_BITS) == 8)
0063   1509           03039 lcdloop bsf     LCD_EREG, LCD_EBIT      ; Enabled
0064   0826           03040         movf    R3, W           ; Get char back
0065   0088           03041         movwf   LCD_DREG        ; Write char to the port
                      03042       if (OSC > 16)
                      03043         nop                     ; Minimum 1us enable time
                      03044       endif
                      03045       if (OSC > 20)
                      03046         nop
                      03047       endif
0066   1032           03048         bcf     LCDCDFLAG       ; Indicate data next time
0067   1109           03049         bcf     LCD_EREG, LCD_EBIT      ; Not enabled
                      03050     else
                      03051 
                      03052       if ((LCD_DBIT) == 0)
                      03053         swapf   R3, F           ; Swap top and bottom nibbles
                      03054       endif
                      03055 
                      03056         btfss   LCDCDFLAG       ; First time through only
                      03057 lcdloop bcf     LCDCDFLAG       ; Indicate second nibble (and data next time)
                      03058 
                      03059         bsf     LCD_EREG, LCD_EBIT      ; Enabled
                      03060 
                      03061       if ((LCD_DBIT) == 0)
                      03062         movlw   0f0h            ; Clear lcd data port
MPASM  5.44                      KEYPAD~1.ASM   4-20-2020  12:51:35         PAGE  8


LOC  OBJECT CODE     LINE SOURCE TEXT
  VALUE

                      03063       else
                      03064         movlw   0fh             ; Clear lcd data port
                      03065       endif
                      03066         andwf   LCD_DREG, F
                      03067 
                      03068         movf    R3, W           ; Isolate proper nibble of char
                      03069       if ((LCD_DBIT) == 0)
                      03070         andlw   0fh
                      03071       else
                      03072         andlw   0f0h
                      03073       endif
                      03074         iorwf   LCD_DREG, F     ; Write char to port
                      03075         bcf     LCD_EREG, LCD_EBIT      ; Not enabled - that's four
                      03076         swapf   R3, F           ; Get to other nibble
                      03077 
                      03078         btfsc   LCDCDFLAG       ; Need to send 4 more?
                      03079         goto    lcdloop         ; Send lower 4 to lcd
                      03080     endif
                      03081 
0068   3032           03082         movlw   LCD_DATAUS      ; Wait for data operation to complete
0069   20C1           03083         call    PAUSEUS
006A   1403           03084         bsf     STATUS, C       ; Set no timeout for Serout2mod
006B   0008           03085         return
                      05106   LIST
006C   13B3           05107 SEROUT2DEC bcf  GOP, 7          ; Blanking off
006D   0829           05108         movf    R4 + 1, W       ; If 0 digits called for then blanking on
006E   1903           05109         btfsc   STATUS, Z
006F   17B3           05110         bsf     GOP, 7          ; Yes, blanking on
0070   3005           05111         movlw   5               ; 5 digits max to do
0071   00A8           05112         movwf   R4
0072   3027           05113         movlw   high 10000      ; Find 10,000s
0073   00A3           05114         movwf   R1 + 1
0074   3010           05115         movlw   low 10000
0075   2082           05116         call    serout2ddig     ; Do the work
                      05117       ifdef SEROUT2TO_USED
                      05118         btfss   STATUS, C       ; Timed out?
                      05119         return                  ; Yes
                      05120       endif
0076   3003           05121         movlw   high 1000       ; Find 1,000s
0077   00A3           05122         movwf   R1 + 1
0078   30E8           05123         movlw   low 1000
0079   2082           05124         call    serout2ddig     ; Do the work
                      05125       ifdef SEROUT2TO_USED
                      05126         btfss   STATUS, C       ; Timed out?
                      05127         return                  ; Yes
                      05128       endif
007A   01A3           05129         clrf    R1 + 1          ; Find 100s
007B   3064           05130         movlw   100
007C   2082           05131         call    serout2ddig     ; Do the work
                      05132       ifdef SEROUT2TO_USED
                      05133         btfss   STATUS, C       ; Timed out?
                      05134         return                  ; Yes
                      05135       endif
MPASM  5.44                      KEYPAD~1.ASM   4-20-2020  12:51:35         PAGE  9


LOC  OBJECT CODE     LINE SOURCE TEXT
  VALUE

007D   01A3           05136         clrf    R1 + 1          ; Find 10s
007E   300A           05137         movlw   10
007F   2082           05138         call    serout2ddig     ; Do the work
                      05139       ifdef SEROUT2TO_USED
                      05140         btfss   STATUS, C       ; Timed out?
                      05141         return                  ; Yes
                      05142       endif
0080   0824           05143         movf    R2, W           ; Get the 1s
0081   2889           05144         goto    SEROUT2SEND     ; Send the 1s and exit
                      05145 
0082   00A2           05146 serout2ddig movwf R1            ; Save last piece
0083   0825           05147         movf    R2 + 1, W       ; Move remainder to dividend
0084   00A1           05148         movwf   R0 + 1
0085   0824           05149         movf    R2, W
0086   00A0           05150         movwf   R0
0087   20D6           05151         call    DIV             ; Do the math
0088   0820           05152         movf    R0, W           ; Get the result
                      05153 ;       goto    SEROUT2SEND     ; Fall through
                      05160   LIST
0089   00A0           05161 SEROUT2SEND movwf R0            ; Save char for a moment
008A   03A8           05162         decf    R4, F           ; Bump down count while we're here
008B   1903           05163         btfsc   STATUS, Z       ; If last digit don't blank
008C   13B3           05164         bcf     GOP, 7
008D   0829           05165         movf    R4 + 1, W       ; Get number of digits to send
008E   1903           05166         btfsc   STATUS, Z       ; If zero digits...
008F   2893           05167         goto    serout2send1    ; ...Skip count compare
0090   0228           05168         subwf   R4, W           ; Send if within count
0091   1803           05169         btfsc   STATUS, C
0092   0008           05170         return
0093   0820           05171 serout2send1 movf R0, W         ; Get char back
                      05172       ifdef SEROUT2TO_USED
                      05173         bsf     STATUS, C       ; Set carry for no timeout in case of blanking
                      05174       endif
0094   1D03           05175         btfss   STATUS, Z       ; If char zero, goto blank check
0095   13B3           05176         bcf     GOP, 7          ; Not zero so clear blank
0096   1BB3           05177         btfsc   GOP, 7          ; If blanking on, don't send
0097   0008           05178         return
0098   3E30           05179         addlw   '0'             ; Add ASCII offset
0099   28F2           05180         goto    JUMPMAN         ; Send it
                      06124   LIST
009A                  06125 READ
                      06126       if ((EEADR & 180h) == 000h)       ; For 16F8x
                      06127         bsf     STATUS, RP0     ; EECON1 in bank 1
                      06128         bsf     EECON1, RD      ; Read the EEPROM
                      06129         bcf     STATUS, RP0     ; EEDATA in bank 0
                      06130         movf    EEDATA, W       ; Get the data
                      06131 READINC incf    EEADR, F        ; Bump up address
                      06132         goto    DONE            ; Done
                      06133       endif
                      06134 
                      06135       if ((EEADR & 180h) == 080h)       ; For 16F62x, 12F62x, 12F67x
                      06136         bsf     STATUS, RP0     ; For EE in bank 1
                      06137         bsf     EECON1, RD      ; Read the EEPROM
MPASM  5.44                      KEYPAD~1.ASM   4-20-2020  12:51:35         PAGE 10


LOC  OBJECT CODE     LINE SOURCE TEXT
  VALUE

                      06138         movf    EEDATA, W       ; Get the data
                      06139 READINC bsf     STATUS, RP0     ; EEADR in bank 1
                      06140         incf    EEADR, F        ; Bump up address
                      06141         goto    DONE            ; Done
                      06142       endif
                      06143 
                      06144       if ((EEADR & 180h) == 100h)       ; For 16F87x
009A   1703           06145         bsf     STATUS, RP1     ; For EE in bank 2 & 3
009B   1683           06146         bsf     STATUS, RP0     ; EECON1 in bank 3
009C   018C           06147         clrf    EECON1          ; Read from data memory
009D   140C           06148         bsf     EECON1, RD      ; Read the EEPROM
009E   1283           06149         bcf     STATUS, RP0     ; EEDATA in bank 2
009F   080C           06150         movf    EEDATA, W       ; Get the data
00A0   1703           06151 READINC bsf     STATUS, RP1     ; EEADR in bank 2
00A1   0A8D           06152         incf    EEADR, F        ; Bump up address
00A2   28F7           06153         goto    DONE            ; Done
                      06154       endif
                      06195   LIST
00A3   0103           06196 WRITEZ  clrw                    ; Data is 0
00A4                  06197 WRITE
                      06198       if ((EEADR & 180h) == 000h)       ; For 16F8x
                      06199         movwf   EEDATA          ; Set the EEPROM data
                      06200         bsf     STATUS, RP0     ; EECON1, 2 in bank 1
                      06201       endif
                      06202 
                      06203       if ((EEADR & 180h) == 080h)       ; For 16F62x, 12F62x, 12F67x
                      06204         bsf     STATUS, RP0     ; For EE in bank 1
                      06205         movwf   EEDATA          ; Set the EEPROM data
                      06206       endif
                      06207 
                      06208       if ((EEADR & 180h) == 100h)       ; For 16F87x
00A4   1703           06209         bsf     STATUS, RP1     ; For EE in bank 2 & 3
00A5   008C           06210         movwf   EEDATA          ; Set the EEPROM data
00A6   1683           06211         bsf     STATUS, RP0     ; EECON1, 2 in bank 3
00A7   018C           06212         clrf    EECON1          ; Write to data memory
                      06213       endif
                      06214 
00A8   150C           06215         bsf     EECON1, WREN
                      06216       ifdef WRITE_INT
                      06217         bcf     INTCON, GIE     ; Disable global interrupts
                      06218         btfsc   INTCON, GIE     ; See AN576
                      06219         goto    $ - 2
                      06220       endif      
00A9   3055           06221         movlw   55h             ; Unlock the door
00AA   008D           06222         movwf   EECON2
00AB   30AA           06223         movlw   0AAh
00AC   008D           06224         movwf   EECON2
00AD   148C           06225         bsf     EECON1, WR      ; Do the write
                      06226       ifdef WRITE_INT
                      06227         bsf     INTCON, GIE     ; Enable global interrupts
                      06228       endif      
00AE   188C           06229 writeloop btfsc EECON1, WR      ; Wait for the write to complete
00AF   28AE           06230         goto    writeloop
MPASM  5.44                      KEYPAD~1.ASM   4-20-2020  12:51:35         PAGE 11


LOC  OBJECT CODE     LINE SOURCE TEXT
  VALUE

00B0   110C           06231         bcf     EECON1, WREN    ; Lock up when we're done
                      06232 
                      06233       if ((EEADR & 180h) == 000h)       ; For 16F8x
                      06234         bcf     STATUS, RP0     ; EEADR in bank 0
                      06235       endif
                      06236 
                      06237       if ((EEADR & 180h) == 100h)       ; For 16F87x
00B1   1283           06238         bcf     STATUS, RP0     ; EEADR in bank 2
                      06239       endif
                      06240 
00B2   0A8D           06241         incf    EEADR, F        ; Bump up address
00B3   28F7           06242         goto    DONE            ; Done
                      06329   LIST
00B4   01A3           06330 PAUSE   clrf    R1 + 1
00B5   00A2           06331 PAUSEL  movwf   R1
00B6   30FF           06332 pauseloop movlw -1              ; 1 (9)
00B7   07A2           06333         addwf   R1, F           ; 1
00B8   1C03           06334         btfss   STATUS, C       ; 1 / 2
00B9   07A3           06335         addwf   R1 + 1, F       ; 1 / 0
00BA   1C03           06336         btfss   STATUS, C       ; 2
00BB   28F7           06337         goto    DONE
00BC   3003           06338         movlw   (PAUSE_DELAY) >> 8      ; 1
00BD   00A1           06339         movwf   R0 + 1          ; 1
00BE   30DF           06340         movlw   low (PAUSE_DELAY)       ; 1
00BF   20C2           06341         call    PAUSEUSL        ; -2 (PAUSEUSL gives you 2 less than you ask for)
00C0   28B6           06342         goto    pauseloop       ; 2
                      06386   LIST
00C1   01A1           06387 PAUSEUS clrf    R0 + 1          ; 1
00C2   3EE8           06388 PAUSEUSL addlw  -24             ; 1 Subtract overhead
00C3   00A0           06389         movwf   R0              ; 1
00C4   09A1           06390         comf    R0 + 1, F       ; 1
00C5   30FC           06391         movlw   -4              ; 1
00C6   1C03           06392         btfss   STATUS, C       ; 1 / 2
00C7   28CB           06393         goto    pauseush        ; 2 / 0
00C8   07A0           06394 pauseusloop addwf R0, F         ; 1
00C9   1803           06395         btfsc   STATUS, C       ; 1 / 2
00CA   28C8           06396         goto    pauseusloop     ; 2 / 0
00CB   07A0           06397 pauseush addwf  R0, F           ; 1 Do an extra countdown
                      06398         CLRWDT?NOP              ; 1 Keep Watchdog clear
                          M     ifndef NO_CLRWDT
00CC   0064               M         clrwdt
                          M     else
                          M         nop
                          M     endif
00CD   0FA1           06399         incfsz  R0 + 1, F       ; 1 / 2
00CE   28C8           06400         goto    pauseusloop     ; 2 / 0
00CF   1820           06401         btfsc   R0, 0           ; 1 / 2
00D0   28D1           06402         goto    $ + 1           ; 2 / 0 Burn an extra cycle
00D1   1CA0           06403         btfss   R0, 1           ; 1 / 2
00D2   28D5           06404         goto    pauseusdone     ; 2 / 0
00D3   0000           06405         nop                     ; 1
00D4   28D5           06406         goto    $ + 1           ; 2 Burn an extra 2 cycles
00D5   0008           06407 pauseusdone return              ; 2 + 3 (call + setup)
MPASM  5.44                      KEYPAD~1.ASM   4-20-2020  12:51:35         PAGE 12


LOC  OBJECT CODE     LINE SOURCE TEXT
  VALUE

                      07621   LIST
00D6   01A5           07622 DIV     clrf    R2 + 1
00D7   01A4           07623         clrf    R2
                      07624 
00D8   3010           07625 DIV32DIV movlw   16
00D9   00A6           07626         movwf   R3
                      07627 
00DA   0D21           07628 divloop rlf     R0 + 1, W
00DB   0DA4           07629         rlf     R2, F
00DC   0DA5           07630         rlf     R2 + 1, F
00DD   0822           07631         movf    R1, W
00DE   02A4           07632         subwf   R2, F
00DF   0823           07633         movf    R1 + 1, W
00E0   1C03           07634         btfss   STATUS, C
00E1   0F23           07635         incfsz  R1 + 1, W
00E2   02A5           07636         subwf   R2 + 1, F
                      07637 
00E3   1803           07638         btfsc   STATUS, C
00E4   28EC           07639         goto    divok
00E5   0822           07640         movf    R1, W
00E6   07A4           07641         addwf   R2, F
00E7   0823           07642         movf    R1 + 1, W
00E8   1803           07643         btfsc   STATUS, C
00E9   0F23           07644         incfsz  R1 + 1, W
00EA   07A5           07645         addwf   R2 + 1, F
                      07646 
00EB   1003           07647         bcf     STATUS, C
                      07648 
00EC   0DA0           07649 divok   rlf     R0, F
00ED   0DA1           07650         rlf     R0 + 1, F
                      07651 
00EE   0BA6           07652         decfsz  R3, F
00EF   28DA           07653         goto    divloop
00F0   0820           07654         movf    R0, W           ; Get low byte to W
00F1   28F7           07655         goto    DONE
                      07747   LIST
00F2   0084           07748 JUMPMAN movwf   FSR
00F3   0831           07749         movf    R8 + 1, W
00F4   008A           07750         movwf   PCLATH
00F5   0830           07751         movf    R8, W
00F6   0082           07752         movwf   PCL
                      07766   LIST
00F7   1383           07767 DONE    bcf     STATUS, IRP     ; 1 Set FSR to bank 0/1
00F8   1303           07768         bcf     STATUS, RP1     ; 1 Show direct bank 0
00F9   1283           07769         bcf     STATUS, RP0     ; 1
                      07770         CLRWDT?NOP              ; 1 Hit Watchdog timer
                          M     ifndef NO_CLRWDT
00FA   0064               M         clrwdt
                          M     else
                          M         nop
                          M     endif
00FB   0008           07771 DONERET return                  ; 2 Done
                      07797   LIST
MPASM  5.44                      KEYPAD~1.ASM   4-20-2020  12:51:35         PAGE 13


LOC  OBJECT CODE     LINE SOURCE TEXT
  VALUE

00FC                  07798 INIT
                      07801   LIST
                      07802         MOVE?CB HSER_SPBRG, SPBRG       ; Set baud rate generator reg
                          M         CHK?RP  SPBRG
                          M     if (((SPBRG) & 180h) == 0)
                          M       if (PREV_BANK == 1)
                          M         bcf     STATUS, RP0
                          M       endif
                          M       if (PREV_BANK == 2)
                          M         bcf     STATUS, RP1
                          M       endif
                          M       if (PREV_BANK == 3)
                          M         bcf     STATUS, RP0
                          M         bcf     STATUS, RP1
                          M       endif
                          M PREV_BANK = 0
                          M     endif
                          M 
                          M     if (((SPBRG) & 180h) == 80h)
                          M       if (PREV_BANK == 0)
00FC   1683               M         bsf     STATUS, RP0
                          M       endif
                          M       if (PREV_BANK == 2)
                          M         bsf     STATUS, RP0
                          M         bcf     STATUS, RP1
                          M       endif
                          M       if (PREV_BANK == 3)
                          M         bcf     STATUS, RP1
                          M       endif
  00000001                M PREV_BANK = 1
                          M     endif
                          M 
                          M     if (((SPBRG) & 180h) == 100h)
                          M       if (PREV_BANK == 0)
                          M         bsf     STATUS, RP1
                          M       endif
                          M       if (PREV_BANK == 1)
                          M         bcf     STATUS, RP0
                          M         bsf     STATUS, RP1
                          M       endif
                          M       if (PREV_BANK == 3)
                          M         bcf     STATUS, RP0
                          M       endif
                          M PREV_BANK = 2
                          M     endif
                          M 
                          M     if (((SPBRG) & 180h) == 180h)
                          M       if (PREV_BANK == 0)
                          M         bsf     STATUS, RP0
                          M         bsf     STATUS, RP1
                          M       endif
                          M       if (PREV_BANK == 1)
                          M         bsf     STATUS, RP1
MPASM  5.44                      KEYPAD~1.ASM   4-20-2020  12:51:35         PAGE 14


LOC  OBJECT CODE     LINE SOURCE TEXT
  VALUE

                          M       endif
                          M       if (PREV_BANK == 2)
                          M         bsf     STATUS, RP0
                          M       endif
                          M PREV_BANK = 3
                          M     endif
                          M     if (low (HSER_SPBRG) == 0)
                          M         clrf    SPBRG
                          M     else
00FD   3019               M         movlw   low (HSER_SPBRG)
00FE   0099               M         movwf   SPBRG
                          M     endif
                      07803     ifdef HSER_SPBRGH
                      07804       ifdef SPBRGH
                      07805         MOVE?CB HSER_SPBRGH, SPBRGH     ; Set baud rate generator reg high
                      07806       endif
                      07807     endif
                      07808         MOVE?CB HSER_TXSTA, TXSTA       ; Set transmit control reg
                          M         CHK?RP  TXSTA
                          M     if (((TXSTA) & 180h) == 0)
                          M       if (PREV_BANK == 1)
                          M         bcf     STATUS, RP0
                          M       endif
                          M       if (PREV_BANK == 2)
                          M         bcf     STATUS, RP1
                          M       endif
                          M       if (PREV_BANK == 3)
                          M         bcf     STATUS, RP0
                          M         bcf     STATUS, RP1
                          M       endif
                          M PREV_BANK = 0
                          M     endif
                          M 
                          M     if (((TXSTA) & 180h) == 80h)
                          M       if (PREV_BANK == 0)
                          M         bsf     STATUS, RP0
                          M       endif
                          M       if (PREV_BANK == 2)
                          M         bsf     STATUS, RP0
                          M         bcf     STATUS, RP1
                          M       endif
                          M       if (PREV_BANK == 3)
                          M         bcf     STATUS, RP1
                          M       endif
  00000001                M PREV_BANK = 1
                          M     endif
                          M 
                          M     if (((TXSTA) & 180h) == 100h)
                          M       if (PREV_BANK == 0)
                          M         bsf     STATUS, RP1
                          M       endif
                          M       if (PREV_BANK == 1)
                          M         bcf     STATUS, RP0
MPASM  5.44                      KEYPAD~1.ASM   4-20-2020  12:51:35         PAGE 15


LOC  OBJECT CODE     LINE SOURCE TEXT
  VALUE

                          M         bsf     STATUS, RP1
                          M       endif
                          M       if (PREV_BANK == 3)
                          M         bcf     STATUS, RP0
                          M       endif
                          M PREV_BANK = 2
                          M     endif
                          M 
                          M     if (((TXSTA) & 180h) == 180h)
                          M       if (PREV_BANK == 0)
                          M         bsf     STATUS, RP0
                          M         bsf     STATUS, RP1
                          M       endif
                          M       if (PREV_BANK == 1)
                          M         bsf     STATUS, RP1
                          M       endif
                          M       if (PREV_BANK == 2)
                          M         bsf     STATUS, RP0
                          M       endif
                          M PREV_BANK = 3
                          M     endif
                          M     if (low (24h) == 0)
                          M         clrf    TXSTA
                          M     else
00FF   3024               M         movlw   low (24h)
0100   0098               M         movwf   TXSTA
                          M     endif
                      07809         MOVE?CB HSER_RCSTA, RCSTA       ; Set receive control reg
                          M         CHK?RP  RCSTA
                          M     if (((RCSTA) & 180h) == 0)
                          M       if (PREV_BANK == 1)
0101   1283               M         bcf     STATUS, RP0
                          M       endif
                          M       if (PREV_BANK == 2)
                          M         bcf     STATUS, RP1
                          M       endif
                          M       if (PREV_BANK == 3)
                          M         bcf     STATUS, RP0
                          M         bcf     STATUS, RP1
                          M       endif
  00000000                M PREV_BANK = 0
                          M     endif
                          M 
                          M     if (((RCSTA) & 180h) == 80h)
                          M       if (PREV_BANK == 0)
                          M         bsf     STATUS, RP0
                          M       endif
                          M       if (PREV_BANK == 2)
                          M         bsf     STATUS, RP0
                          M         bcf     STATUS, RP1
                          M       endif
                          M       if (PREV_BANK == 3)
                          M         bcf     STATUS, RP1
MPASM  5.44                      KEYPAD~1.ASM   4-20-2020  12:51:35         PAGE 16


LOC  OBJECT CODE     LINE SOURCE TEXT
  VALUE

                          M       endif
                          M PREV_BANK = 1
                          M     endif
                          M 
                          M     if (((RCSTA) & 180h) == 100h)
                          M       if (PREV_BANK == 0)
                          M         bsf     STATUS, RP1
                          M       endif
                          M       if (PREV_BANK == 1)
                          M         bcf     STATUS, RP0
                          M         bsf     STATUS, RP1
                          M       endif
                          M       if (PREV_BANK == 3)
                          M         bcf     STATUS, RP0
                          M       endif
                          M PREV_BANK = 2
                          M     endif
                          M 
                          M     if (((RCSTA) & 180h) == 180h)
                          M       if (PREV_BANK == 0)
                          M         bsf     STATUS, RP0
                          M         bsf     STATUS, RP1
                          M       endif
                          M       if (PREV_BANK == 1)
                          M         bsf     STATUS, RP1
                          M       endif
                          M       if (PREV_BANK == 2)
                          M         bsf     STATUS, RP0
                          M       endif
                          M PREV_BANK = 3
                          M     endif
                          M     if (low (90h) == 0)
                          M         clrf    RCSTA
                          M     else
0102   3090               M         movlw   low (90h)
0103   0098               M         movwf   RCSTA
                          M     endif
                      07836   LIST
0104                  07837 main
                      00104 
                      00105 
                      00106 ; C:\PBP\16F877.BAS             00012   BANK0   $0020, $007F
                      00107 ; C:\PBP\16F877.BAS             00013   BANK1   $00A0, $00EF
                      00108 ; C:\PBP\16F877.BAS             00014   BANK2   $0110, $016F
                      00109 ; C:\PBP\16F877.BAS             00015   BANK3   $0190, $01EF
                      00110 ; C:\PBP\16F877.BAS             00016   EEPROM  $2100, $21FF
                      00111 ; C:\PBP\16F877.BAS             00017   LIBRARY "PBPPIC14"
                      00112 ; C:\PBP\16F877.BAS             00018   DEFINE  CODE_SIZE 8
                      00113 
                      00114 ; C:\PBP\16F877.BAS             00020           include "PIC14EXT.BAS"
                      00115 
                      00116 ; C:\PBP\16F877.BAS             00027           include "PBPPIC14.RAM"
                      00117 
MPASM  5.44                      KEYPAD~1.ASM   4-20-2020  12:51:35         PAGE 17


LOC  OBJECT CODE     LINE SOURCE TEXT
  VALUE

                      00118 ; C:\PBP\KEYPAD~1.PBP           00002   include "lcdKod.pbp"
                      00119 ; C:\PBP\LCDKOD.PBP             00002   DEFINE LCD_DREG PORTD           'LCD data portunun baglandigi pi
                            c portu 
                      00120 ; C:\PBP\LCDKOD.PBP             00003   DEFINE LCD_DBIT 0                        '4-bit bus için data bi
                            t(0yada4) baslangiç
                      00121 ; C:\PBP\LCDKOD.PBP             00004   DEFINE LCD_RSREG PORTE          'LCD RS in baglandigi pic portu 
                      00122 ; C:\PBP\LCDKOD.PBP             00005   DEFINE LCD_RSBIT 0                      'RS in baglandigi pic po
                            rtE nin bit numarasi
                      00123 ; C:\PBP\LCDKOD.PBP             00006   DEFINE LCD_EREG PORTE            'LCD E nin baglandigi pic portu
                             
                      00124 ; C:\PBP\LCDKOD.PBP             00007   DEFINE LCD_EBIT 2                        'LCD E nin baglandigi p
                            ic portE nin bit numarasi
                      00125 ; C:\PBP\LCDKOD.PBP             00008   DEFINE LCD_BITS 8                             'PortD nin 8 biti 
                            veri transferi için kullanildi
                      00126 ; C:\PBP\KEYPAD~1.PBP           00003   define HSER_RCSTA 90h
                      00127 ; C:\PBP\KEYPAD~1.PBP           00004   DEFINE HSER_TXSTA 24h
                      00128 ; C:\PBP\KEYPAD~1.PBP           00005   DEFINE HSER_BAUD 9600    'terminaldeki haberleþme hýzý
                      00129 ; C:\PBP\KEYPAD~1.PBP           00006   DEFINE HSER_CLROERR 1
                      00130 
                      00131 ; C:\PBP\KEYPAD~1.PBP           00008   TRISE=%000                                       'Aslinda PortE.
                            1 direkt topraga çekilse olurdu ama 
                      00132         MOVE?CB 000h, TRISE
                          M         CHK?RP  TRISE
                          M     if (((TRISE) & 180h) == 0)
                          M       if (PREV_BANK == 1)
                          M         bcf     STATUS, RP0
                          M       endif
                          M       if (PREV_BANK == 2)
                          M         bcf     STATUS, RP1
                          M       endif
                          M       if (PREV_BANK == 3)
                          M         bcf     STATUS, RP0
                          M         bcf     STATUS, RP1
                          M       endif
                          M PREV_BANK = 0
                          M     endif
                          M 
                          M     if (((TRISE) & 180h) == 80h)
                          M       if (PREV_BANK == 0)
0104   1683               M         bsf     STATUS, RP0
                          M       endif
                          M       if (PREV_BANK == 2)
                          M         bsf     STATUS, RP0
                          M         bcf     STATUS, RP1
                          M       endif
                          M       if (PREV_BANK == 3)
                          M         bcf     STATUS, RP1
                          M       endif
  00000001                M PREV_BANK = 1
                          M     endif
                          M 
                          M     if (((TRISE) & 180h) == 100h)
                          M       if (PREV_BANK == 0)
MPASM  5.44                      KEYPAD~1.ASM   4-20-2020  12:51:35         PAGE 18


LOC  OBJECT CODE     LINE SOURCE TEXT
  VALUE

                          M         bsf     STATUS, RP1
                          M       endif
                          M       if (PREV_BANK == 1)
                          M         bcf     STATUS, RP0
                          M         bsf     STATUS, RP1
                          M       endif
                          M       if (PREV_BANK == 3)
                          M         bcf     STATUS, RP0
                          M       endif
                          M PREV_BANK = 2
                          M     endif
                          M 
                          M     if (((TRISE) & 180h) == 180h)
                          M       if (PREV_BANK == 0)
                          M         bsf     STATUS, RP0
                          M         bsf     STATUS, RP1
                          M       endif
                          M       if (PREV_BANK == 1)
                          M         bsf     STATUS, RP1
                          M       endif
                          M       if (PREV_BANK == 2)
                          M         bsf     STATUS, RP0
                          M       endif
                          M PREV_BANK = 3
                          M     endif
                          M     if (low (000h) == 0)
0105   0189               M         clrf    TRISE
                          M     else
                          M         movlw   low (000h)
                          M         movwf   TRISE
                          M     endif
                      00133 
                      00134 ; C:\PBP\KEYPAD~1.PBP           00009   PortE.1=0                                             ' PortE.1=
                            0 olarak yaptik
                      00135         MOVE?CT 000h, _PORTE??1
                          M         CHK?RP  PORTE
                          M     if (((PORTE) & 180h) == 0)
                          M       if (PREV_BANK == 1)
0106   1283               M         bcf     STATUS, RP0
                          M       endif
                          M       if (PREV_BANK == 2)
                          M         bcf     STATUS, RP1
                          M       endif
                          M       if (PREV_BANK == 3)
                          M         bcf     STATUS, RP0
                          M         bcf     STATUS, RP1
                          M       endif
  00000000                M PREV_BANK = 0
                          M     endif
                          M 
                          M     if (((PORTE) & 180h) == 80h)
                          M       if (PREV_BANK == 0)
                          M         bsf     STATUS, RP0
MPASM  5.44                      KEYPAD~1.ASM   4-20-2020  12:51:35         PAGE 19


LOC  OBJECT CODE     LINE SOURCE TEXT
  VALUE

                          M       endif
                          M       if (PREV_BANK == 2)
                          M         bsf     STATUS, RP0
                          M         bcf     STATUS, RP1
                          M       endif
                          M       if (PREV_BANK == 3)
                          M         bcf     STATUS, RP1
                          M       endif
                          M PREV_BANK = 1
                          M     endif
                          M 
                          M     if (((PORTE) & 180h) == 100h)
                          M       if (PREV_BANK == 0)
                          M         bsf     STATUS, RP1
                          M       endif
                          M       if (PREV_BANK == 1)
                          M         bcf     STATUS, RP0
                          M         bsf     STATUS, RP1
                          M       endif
                          M       if (PREV_BANK == 3)
                          M         bcf     STATUS, RP0
                          M       endif
                          M PREV_BANK = 2
                          M     endif
                          M 
                          M     if (((PORTE) & 180h) == 180h)
                          M       if (PREV_BANK == 0)
                          M         bsf     STATUS, RP0
                          M         bsf     STATUS, RP1
                          M       endif
                          M       if (PREV_BANK == 1)
                          M         bsf     STATUS, RP1
                          M       endif
                          M       if (PREV_BANK == 2)
                          M         bsf     STATUS, RP0
                          M       endif
                          M PREV_BANK = 3
                          M     endif
                          M     if (((000h) & 1) == 1)
                          M         bsf     PORTE,  001h
                          M     else
0107   1089               M         bcf     PORTE,  001h
                          M     endif
                      00136 
                      00137 ; C:\PBP\KEYPAD~1.PBP           00010   ADCON1=7                                         'porta ve porte
                             yi dijitale ayarla
                      00138         MOVE?CB 007h, ADCON1
                          M         CHK?RP  ADCON1
                          M     if (((ADCON1) & 180h) == 0)
                          M       if (PREV_BANK == 1)
                          M         bcf     STATUS, RP0
                          M       endif
                          M       if (PREV_BANK == 2)
MPASM  5.44                      KEYPAD~1.ASM   4-20-2020  12:51:35         PAGE 20


LOC  OBJECT CODE     LINE SOURCE TEXT
  VALUE

                          M         bcf     STATUS, RP1
                          M       endif
                          M       if (PREV_BANK == 3)
                          M         bcf     STATUS, RP0
                          M         bcf     STATUS, RP1
                          M       endif
                          M PREV_BANK = 0
                          M     endif
                          M 
                          M     if (((ADCON1) & 180h) == 80h)
                          M       if (PREV_BANK == 0)
0108   1683               M         bsf     STATUS, RP0
                          M       endif
                          M       if (PREV_BANK == 2)
                          M         bsf     STATUS, RP0
                          M         bcf     STATUS, RP1
                          M       endif
                          M       if (PREV_BANK == 3)
                          M         bcf     STATUS, RP1
                          M       endif
  00000001                M PREV_BANK = 1
                          M     endif
                          M 
                          M     if (((ADCON1) & 180h) == 100h)
                          M       if (PREV_BANK == 0)
                          M         bsf     STATUS, RP1
                          M       endif
                          M       if (PREV_BANK == 1)
                          M         bcf     STATUS, RP0
                          M         bsf     STATUS, RP1
                          M       endif
                          M       if (PREV_BANK == 3)
                          M         bcf     STATUS, RP0
                          M       endif
                          M PREV_BANK = 2
                          M     endif
                          M 
                          M     if (((ADCON1) & 180h) == 180h)
                          M       if (PREV_BANK == 0)
                          M         bsf     STATUS, RP0
                          M         bsf     STATUS, RP1
                          M       endif
                          M       if (PREV_BANK == 1)
                          M         bsf     STATUS, RP1
                          M       endif
                          M       if (PREV_BANK == 2)
                          M         bsf     STATUS, RP0
                          M       endif
                          M PREV_BANK = 3
                          M     endif
                          M     if (low (007h) == 0)
                          M         clrf    ADCON1
                          M     else
MPASM  5.44                      KEYPAD~1.ASM   4-20-2020  12:51:35         PAGE 21


LOC  OBJECT CODE     LINE SOURCE TEXT
  VALUE

0109   3007               M         movlw   low (007h)
010A   009F               M         movwf   ADCON1
                          M     endif
                      00139 
                      00140 ; C:\PBP\KEYPAD~1.PBP           00012   TrisB = %00000000 
                      00141         MOVE?CB 000h, TRISB
                          M         CHK?RP  TRISB
                          M     if (((TRISB) & 180h) == 0)
                          M       if (PREV_BANK == 1)
                          M         bcf     STATUS, RP0
                          M       endif
                          M       if (PREV_BANK == 2)
                          M         bcf     STATUS, RP1
                          M       endif
                          M       if (PREV_BANK == 3)
                          M         bcf     STATUS, RP0
                          M         bcf     STATUS, RP1
                          M       endif
                          M PREV_BANK = 0
                          M     endif
                          M 
                          M     if (((TRISB) & 180h) == 80h)
                          M       if (PREV_BANK == 0)
                          M         bsf     STATUS, RP0
                          M       endif
                          M       if (PREV_BANK == 2)
                          M         bsf     STATUS, RP0
                          M         bcf     STATUS, RP1
                          M       endif
                          M       if (PREV_BANK == 3)
                          M         bcf     STATUS, RP1
                          M       endif
  00000001                M PREV_BANK = 1
                          M     endif
                          M 
                          M     if (((TRISB) & 180h) == 100h)
                          M       if (PREV_BANK == 0)
                          M         bsf     STATUS, RP1
                          M       endif
                          M       if (PREV_BANK == 1)
                          M         bcf     STATUS, RP0
                          M         bsf     STATUS, RP1
                          M       endif
                          M       if (PREV_BANK == 3)
                          M         bcf     STATUS, RP0
                          M       endif
                          M PREV_BANK = 2
                          M     endif
                          M 
                          M     if (((TRISB) & 180h) == 180h)
                          M       if (PREV_BANK == 0)
                          M         bsf     STATUS, RP0
                          M         bsf     STATUS, RP1
MPASM  5.44                      KEYPAD~1.ASM   4-20-2020  12:51:35         PAGE 22


LOC  OBJECT CODE     LINE SOURCE TEXT
  VALUE

                          M       endif
                          M       if (PREV_BANK == 1)
                          M         bsf     STATUS, RP1
                          M       endif
                          M       if (PREV_BANK == 2)
                          M         bsf     STATUS, RP0
                          M       endif
                          M PREV_BANK = 3
                          M     endif
                          M     if (low (000h) == 0)
010B   0186               M         clrf    TRISB
                          M     else
                          M         movlw   low (000h)
                          M         movwf   TRISB
                          M     endif
                      00142 
                      00143 ; C:\PBP\KEYPAD~1.PBP           00013   portB = %00000000
                      00144         MOVE?CB 000h, PORTB
                          M         CHK?RP  PORTB
                          M     if (((PORTB) & 180h) == 0)
                          M       if (PREV_BANK == 1)
010C   1283               M         bcf     STATUS, RP0
                          M       endif
                          M       if (PREV_BANK == 2)
                          M         bcf     STATUS, RP1
                          M       endif
                          M       if (PREV_BANK == 3)
                          M         bcf     STATUS, RP0
                          M         bcf     STATUS, RP1
                          M       endif
  00000000                M PREV_BANK = 0
                          M     endif
                          M 
                          M     if (((PORTB) & 180h) == 80h)
                          M       if (PREV_BANK == 0)
                          M         bsf     STATUS, RP0
                          M       endif
                          M       if (PREV_BANK == 2)
                          M         bsf     STATUS, RP0
                          M         bcf     STATUS, RP1
                          M       endif
                          M       if (PREV_BANK == 3)
                          M         bcf     STATUS, RP1
                          M       endif
                          M PREV_BANK = 1
                          M     endif
                          M 
                          M     if (((PORTB) & 180h) == 100h)
                          M       if (PREV_BANK == 0)
                          M         bsf     STATUS, RP1
                          M       endif
                          M       if (PREV_BANK == 1)
                          M         bcf     STATUS, RP0
MPASM  5.44                      KEYPAD~1.ASM   4-20-2020  12:51:35         PAGE 23


LOC  OBJECT CODE     LINE SOURCE TEXT
  VALUE

                          M         bsf     STATUS, RP1
                          M       endif
                          M       if (PREV_BANK == 3)
                          M         bcf     STATUS, RP0
                          M       endif
                          M PREV_BANK = 2
                          M     endif
                          M 
                          M     if (((PORTB) & 180h) == 180h)
                          M       if (PREV_BANK == 0)
                          M         bsf     STATUS, RP0
                          M         bsf     STATUS, RP1
                          M       endif
                          M       if (PREV_BANK == 1)
                          M         bsf     STATUS, RP1
                          M       endif
                          M       if (PREV_BANK == 2)
                          M         bsf     STATUS, RP0
                          M       endif
                          M PREV_BANK = 3
                          M     endif
                          M     if (low (000h) == 0)
010D   0186               M         clrf    PORTB
                          M     else
                          M         movlw   low (000h)
                          M         movwf   PORTB
                          M     endif
                      00145 
                      00146 ; C:\PBP\KEYPAD~1.PBP           00019   label:
                      00147 
                      00148         LABEL?L _label  
                          M         RST?RP
                          M     if ((PREV_BANK & 1) != 0)
                          M         bcf     STATUS, RP0
                          M     endif
                          M     if ((PREV_BANK & 2) != 0)
                          M         bcf     STATUS, RP1
                          M     endif
  00000000                M PREV_BANK = 0
                          M     ifdef PM_USED
                          M         LALL
                          M _label
                          M         XALL
                          M     else
010E                      M _label
                          M     endif
                      00149 
                      00150 ; C:\PBP\KEYPAD~1.PBP           00020   l=128
                      00151         MOVE?CB 080h, _l
                          M         CHK?RP  _l
                          M     if (((_l)    & 180h) == 0)
                          M       if (PREV_BANK == 1)
                          M         bcf     STATUS, RP0
MPASM  5.44                      KEYPAD~1.ASM   4-20-2020  12:51:35         PAGE 24


LOC  OBJECT CODE     LINE SOURCE TEXT
  VALUE

                          M       endif
                          M       if (PREV_BANK == 2)
                          M         bcf     STATUS, RP1
                          M       endif
                          M       if (PREV_BANK == 3)
                          M         bcf     STATUS, RP0
                          M         bcf     STATUS, RP1
                          M       endif
  00000000                M PREV_BANK = 0
                          M     endif
                          M 
                          M     if (((_l)    & 180h) == 80h)
                          M       if (PREV_BANK == 0)
                          M         bsf     STATUS, RP0
                          M       endif
                          M       if (PREV_BANK == 2)
                          M         bsf     STATUS, RP0
                          M         bcf     STATUS, RP1
                          M       endif
                          M       if (PREV_BANK == 3)
                          M         bcf     STATUS, RP1
                          M       endif
                          M PREV_BANK = 1
                          M     endif
                          M 
                          M     if (((_l)    & 180h) == 100h)
                          M       if (PREV_BANK == 0)
                          M         bsf     STATUS, RP1
                          M       endif
                          M       if (PREV_BANK == 1)
                          M         bcf     STATUS, RP0
                          M         bsf     STATUS, RP1
                          M       endif
                          M       if (PREV_BANK == 3)
                          M         bcf     STATUS, RP0
                          M       endif
                          M PREV_BANK = 2
                          M     endif
                          M 
                          M     if (((_l)    & 180h) == 180h)
                          M       if (PREV_BANK == 0)
                          M         bsf     STATUS, RP0
                          M         bsf     STATUS, RP1
                          M       endif
                          M       if (PREV_BANK == 1)
                          M         bsf     STATUS, RP1
                          M       endif
                          M       if (PREV_BANK == 2)
                          M         bsf     STATUS, RP0
                          M       endif
                          M PREV_BANK = 3
                          M     endif
                          M     if (low (080h) == 0)
MPASM  5.44                      KEYPAD~1.ASM   4-20-2020  12:51:35         PAGE 25


LOC  OBJECT CODE     LINE SOURCE TEXT
  VALUE

                          M         clrf    _l
                          M     else
010E   3080               M         movlw   low (080h)
010F   00BB               M         movwf   _l
                          M     endif
                      00152 
                      00153 ; C:\PBP\KEYPAD~1.PBP           00021   lcdout $fe,1
                      00154         LCDOUT?C        0FEh
0110   30FE               M         movlw   0FEh
                          M         L?CALL  LCDOUT
                          M         RST?RP
                          M     if ((PREV_BANK & 1) != 0)
                          M         bcf     STATUS, RP0
                          M     endif
                          M     if ((PREV_BANK & 2) != 0)
                          M         bcf     STATUS, RP1
                          M     endif
  00000000                M PREV_BANK = 0
                          M 
                          M     ifdef USE_LINKER
                          M       if (CODE_SIZE > 2)
                          M         pagesel LCDOUT
                          M       endif
                          M     else
                          M       if ((LCDOUT) < 1)
                          M         if (CODE_SIZE > 2)
                          M           if (((LCDOUT) & 800h) == 0)
                          M         bcf     PCLATH, 3
                          M         else
                          M         bsf     PCLATH, 3
                          M         endif
                          M         endif
                          M         if (CODE_SIZE > 4)
                          M           if (((LCDOUT) & 1000h) == 0)
                          M         bcf     PCLATH, 4
                          M           else
                          M         bsf     PCLATH, 4
                          M           endif
                          M         endif
                          M       else
                          M         if ((LCDOUT) > $)
                          M           if (CODE_SIZE > 2)
                          M             if (((LCDOUT) & 800h) == 0)
                          M         bcf     PCLATH, 3
                          M             else
                          M         bsf     PCLATH, 3
                          M             endif
                          M           endif
                          M           if (CODE_SIZE > 4)
                          M             if (((LCDOUT) & 1000h) == 0)
                          M         bcf     PCLATH, 4
                          M             else
                          M         bsf     PCLATH, 4
MPASM  5.44                      KEYPAD~1.ASM   4-20-2020  12:51:35         PAGE 26


LOC  OBJECT CODE     LINE SOURCE TEXT
  VALUE

                          M             endif
                          M           endif
                          M         else
                          M           if (CODE_SIZE > 2)
                          M             if (((LCDOUT) & 1800h) == 0)
0111   018A               M         clrf    PCLATH
                          M             else
                          M               if (((LCDOUT) & 800h) == 0)
                          M         bcf     PCLATH, 3
                          M               else
                          M         bsf     PCLATH, 3
                          M               endif
                          M               if (CODE_SIZE > 4)
                          M                 if (((LCDOUT) & 1000h) == 0)
                          M         bcf     PCLATH, 4
                          M                 else
                          M         bsf     PCLATH, 4
                          M                 endif   
                          M               endif
                          M             endif
                          M           endif
                          M         endif
                          M       endif
                          M     endif
                          M 
0112   2028               M         call    LCDOUT
                      00155         LCDOUT?C        001h
0113   3001               M         movlw   001h
                          M         L?CALL  LCDOUT
                          M         RST?RP
                          M     if ((PREV_BANK & 1) != 0)
                          M         bcf     STATUS, RP0
                          M     endif
                          M     if ((PREV_BANK & 2) != 0)
                          M         bcf     STATUS, RP1
                          M     endif
  00000000                M PREV_BANK = 0
                          M 
                          M     ifdef USE_LINKER
                          M       if (CODE_SIZE > 2)
                          M         pagesel LCDOUT
                          M       endif
                          M     else
                          M       if ((LCDOUT) < 1)
                          M         if (CODE_SIZE > 2)
                          M           if (((LCDOUT) & 800h) == 0)
                          M         bcf     PCLATH, 3
                          M         else
                          M         bsf     PCLATH, 3
                          M         endif
                          M         endif
                          M         if (CODE_SIZE > 4)
                          M           if (((LCDOUT) & 1000h) == 0)
MPASM  5.44                      KEYPAD~1.ASM   4-20-2020  12:51:35         PAGE 27


LOC  OBJECT CODE     LINE SOURCE TEXT
  VALUE

                          M         bcf     PCLATH, 4
                          M           else
                          M         bsf     PCLATH, 4
                          M           endif
                          M         endif
                          M       else
                          M         if ((LCDOUT) > $)
                          M           if (CODE_SIZE > 2)
                          M             if (((LCDOUT) & 800h) == 0)
                          M         bcf     PCLATH, 3
                          M             else
                          M         bsf     PCLATH, 3
                          M             endif
                          M           endif
                          M           if (CODE_SIZE > 4)
                          M             if (((LCDOUT) & 1000h) == 0)
                          M         bcf     PCLATH, 4
                          M             else
                          M         bsf     PCLATH, 4
                          M             endif
                          M           endif
                          M         else
                          M           if (CODE_SIZE > 2)
                          M             if (((LCDOUT) & 1800h) == 0)
0114   018A               M         clrf    PCLATH
                          M             else
                          M               if (((LCDOUT) & 800h) == 0)
                          M         bcf     PCLATH, 3
                          M               else
                          M         bsf     PCLATH, 3
                          M               endif
                          M               if (CODE_SIZE > 4)
                          M                 if (((LCDOUT) & 1000h) == 0)
                          M         bcf     PCLATH, 4
                          M                 else
                          M         bsf     PCLATH, 4
                          M                 endif   
                          M               endif
                          M             endif
                          M           endif
                          M         endif
                          M       endif
                          M     endif
                          M 
0115   2028               M         call    LCDOUT
                      00156 
                      00157 ; C:\PBP\KEYPAD~1.PBP           00022   for j=0 to 10
                      00158         MOVE?CB 000h, _j
                          M         CHK?RP  _j
                          M     if (((_j)    & 180h) == 0)
                          M       if (PREV_BANK == 1)
                          M         bcf     STATUS, RP0
                          M       endif
MPASM  5.44                      KEYPAD~1.ASM   4-20-2020  12:51:35         PAGE 28


LOC  OBJECT CODE     LINE SOURCE TEXT
  VALUE

                          M       if (PREV_BANK == 2)
                          M         bcf     STATUS, RP1
                          M       endif
                          M       if (PREV_BANK == 3)
                          M         bcf     STATUS, RP0
                          M         bcf     STATUS, RP1
                          M       endif
  00000000                M PREV_BANK = 0
                          M     endif
                          M 
                          M     if (((_j)    & 180h) == 80h)
                          M       if (PREV_BANK == 0)
                          M         bsf     STATUS, RP0
                          M       endif
                          M       if (PREV_BANK == 2)
                          M         bsf     STATUS, RP0
                          M         bcf     STATUS, RP1
                          M       endif
                          M       if (PREV_BANK == 3)
                          M         bcf     STATUS, RP1
                          M       endif
                          M PREV_BANK = 1
                          M     endif
                          M 
                          M     if (((_j)    & 180h) == 100h)
                          M       if (PREV_BANK == 0)
                          M         bsf     STATUS, RP1
                          M       endif
                          M       if (PREV_BANK == 1)
                          M         bcf     STATUS, RP0
                          M         bsf     STATUS, RP1
                          M       endif
                          M       if (PREV_BANK == 3)
                          M         bcf     STATUS, RP0
                          M       endif
                          M PREV_BANK = 2
                          M     endif
                          M 
                          M     if (((_j)    & 180h) == 180h)
                          M       if (PREV_BANK == 0)
                          M         bsf     STATUS, RP0
                          M         bsf     STATUS, RP1
                          M       endif
                          M       if (PREV_BANK == 1)
                          M         bsf     STATUS, RP1
                          M       endif
                          M       if (PREV_BANK == 2)
                          M         bsf     STATUS, RP0
                          M       endif
                          M PREV_BANK = 3
                          M     endif
                          M     if (low (000h) == 0)
0116   01B9               M         clrf    _j
MPASM  5.44                      KEYPAD~1.ASM   4-20-2020  12:51:35         PAGE 29


LOC  OBJECT CODE     LINE SOURCE TEXT
  VALUE

                          M     else
                          M         movlw   low (000h)
                          M         movwf   _j
                          M     endif
                      00159         LABEL?L L00001  
                          M         RST?RP
                          M     if ((PREV_BANK & 1) != 0)
                          M         bcf     STATUS, RP0
                          M     endif
                          M     if ((PREV_BANK & 2) != 0)
                          M         bcf     STATUS, RP1
                          M     endif
  00000000                M PREV_BANK = 0
                          M     ifdef PM_USED
                          M         LALL
                          M L00001
                          M         XALL
                          M     else
0117                      M L00001
                          M     endif
                      00160         CMPGT?BCL       _j, 00Ah, L00002
                          M     if ((00Ah) < 0)
                          M         L?GOTO  L00002
                          M     else
                          M       if ((00Ah) < 0ffh)
                          M         CLRWDT?
                          M     ifndef NO_CLRWDT
0117   0064               M         clrwdt
                          M     endif
                          M         MOVE?CA (00Ah) + 1
0118   300B               M         movlw   low ((00Ah) + 1)
                          M         CHK?RP  _j
                          M     if (((_j)    & 180h) == 0)
                          M       if (PREV_BANK == 1)
                          M         bcf     STATUS, RP0
                          M       endif
                          M       if (PREV_BANK == 2)
                          M         bcf     STATUS, RP1
                          M       endif
                          M       if (PREV_BANK == 3)
                          M         bcf     STATUS, RP0
                          M         bcf     STATUS, RP1
                          M       endif
  00000000                M PREV_BANK = 0
                          M     endif
                          M 
                          M     if (((_j)    & 180h) == 80h)
                          M       if (PREV_BANK == 0)
                          M         bsf     STATUS, RP0
                          M       endif
                          M       if (PREV_BANK == 2)
                          M         bsf     STATUS, RP0
                          M         bcf     STATUS, RP1
MPASM  5.44                      KEYPAD~1.ASM   4-20-2020  12:51:35         PAGE 30


LOC  OBJECT CODE     LINE SOURCE TEXT
  VALUE

                          M       endif
                          M       if (PREV_BANK == 3)
                          M         bcf     STATUS, RP1
                          M       endif
                          M PREV_BANK = 1
                          M     endif
                          M 
                          M     if (((_j)    & 180h) == 100h)
                          M       if (PREV_BANK == 0)
                          M         bsf     STATUS, RP1
                          M       endif
                          M       if (PREV_BANK == 1)
                          M         bcf     STATUS, RP0
                          M         bsf     STATUS, RP1
                          M       endif
                          M       if (PREV_BANK == 3)
                          M         bcf     STATUS, RP0
                          M       endif
                          M PREV_BANK = 2
                          M     endif
                          M 
                          M     if (((_j)    & 180h) == 180h)
                          M       if (PREV_BANK == 0)
                          M         bsf     STATUS, RP0
                          M         bsf     STATUS, RP1
                          M       endif
                          M       if (PREV_BANK == 1)
                          M         bsf     STATUS, RP1
                          M       endif
                          M       if (PREV_BANK == 2)
                          M         bsf     STATUS, RP0
                          M       endif
                          M PREV_BANK = 3
                          M     endif
0119   0239               M         subwf   _j,  W
                          M         BIT?GOTO 1, STATUS, C, L00002
                          M     ifdef USE_LINKER
                          M         CLRWDT?
                          M     else
                          M       if ($ == (L00002))
                          M         CLRWDT?
                          M       endif
                          M     endif
                          M 
                          M     ifdef USE_LINKER
                          M       if (CODE_SIZE > 2)
                          M         pagesel L00002
                          M       endif
                          M     else
                          M       if (CODE_SIZE > 2)
                          M         if (((L00002) & 800h) == 0)
011A   118A               M         bcf     PCLATH, 3
                          M         else
MPASM  5.44                      KEYPAD~1.ASM   4-20-2020  12:51:35         PAGE 31


LOC  OBJECT CODE     LINE SOURCE TEXT
  VALUE

                          M         bsf     PCLATH, 3
                          M         endif
                          M       endif
                          M       if (CODE_SIZE > 4)
                          M         if (((L00002) & 1000h) == 0)
011B   120A               M         bcf     PCLATH, 4
                          M         else
                          M         bsf     PCLATH, 4
                          M         endif
                          M       endif
                          M     endif
                          M 
                          M     if (((STATUS) & 0ff80h) != 0)
                          M         CHK?RP  STATUS
                          M         bcf     STATUS, DC
                          M       if ((1)      == 0)
                          M         btfss   STATUS, C
                          M       else
                          M         btfsc   STATUS, C
                          M       endif
                          M         bsf     STATUS, DC
                          M         RST?RP
                          M         btfsc   STATUS, DC
                          M     else
                          M         RST?RP
                          M     if ((PREV_BANK & 1) != 0)
                          M         bcf     STATUS, RP0
                          M     endif
                          M     if ((PREV_BANK & 2) != 0)
                          M         bcf     STATUS, RP1
                          M     endif
  00000000                M PREV_BANK = 0
                          M       if ((1)      == 0)
                          M         btfss   STATUS, C
                          M       else
011C   1803               M         btfsc   STATUS, C
                          M       endif
                          M     endif
                          M 
011D   2938               M         goto    L00002
                          M       endif
                          M     endif
                      00161 
                      00162 ; C:\PBP\KEYPAD~1.PBP           00023      gosub phone
                      00163         GOSUB?L _phone
  0000                    M     local dlabel
                          M     ifdef DEBUG_STACK
                          M         CHK?RP  DEBUG_STACK
                          M       ifdef DEBUG_STACK_ADDR
                          M         bcf     STATUS, C
                          M         rlf     DEBUG_STACK, W
                          M         addlw   DEBUG_STACK_ADDR
                          M         movwf   FSR
MPASM  5.44                      KEYPAD~1.ASM   4-20-2020  12:51:35         PAGE 32


LOC  OBJECT CODE     LINE SOURCE TEXT
  VALUE

                          M         movlw   low (dlabel)
                          M         movwf   INDF
                          M         incf    FSR, F
                          M         movlw   high (dlabel)
                          M         movwf   INDF
                          M       endif
                          M         incf    DEBUG_STACK, F
                          M     endif
                          M         L?CALL  _phone
                          M         RST?RP
                          M     if ((PREV_BANK & 1) != 0)
                          M         bcf     STATUS, RP0
                          M     endif
                          M     if ((PREV_BANK & 2) != 0)
                          M         bcf     STATUS, RP1
                          M     endif
  00000000                M PREV_BANK = 0
                          M 
                          M     ifdef USE_LINKER
                          M       if (CODE_SIZE > 2)
                          M         pagesel _phone
                          M       endif
                          M     else
                          M       if ((_phone) < 1)
                          M         if (CODE_SIZE > 2)
                          M           if (((_phone) & 800h) == 0)
                          M         bcf     PCLATH, 3
                          M         else
                          M         bsf     PCLATH, 3
                          M         endif
                          M         endif
                          M         if (CODE_SIZE > 4)
                          M           if (((_phone) & 1000h) == 0)
                          M         bcf     PCLATH, 4
                          M           else
                          M         bsf     PCLATH, 4
                          M           endif
                          M         endif
                          M       else
                          M         if ((_phone) > $)
                          M           if (CODE_SIZE > 2)
                          M             if (((_phone) & 800h) == 0)
011E   118A               M         bcf     PCLATH, 3
                          M             else
                          M         bsf     PCLATH, 3
                          M             endif
                          M           endif
                          M           if (CODE_SIZE > 4)
                          M             if (((_phone) & 1000h) == 0)
011F   120A               M         bcf     PCLATH, 4
                          M             else
                          M         bsf     PCLATH, 4
                          M             endif
MPASM  5.44                      KEYPAD~1.ASM   4-20-2020  12:51:35         PAGE 33


LOC  OBJECT CODE     LINE SOURCE TEXT
  VALUE

                          M           endif
                          M         else
                          M           if (CODE_SIZE > 2)
                          M             if (((_phone) & 1800h) == 0)
                          M         clrf    PCLATH
                          M             else
                          M               if (((_phone) & 800h) == 0)
                          M         bcf     PCLATH, 3
                          M               else
                          M         bsf     PCLATH, 3
                          M               endif
                          M               if (CODE_SIZE > 4)
                          M                 if (((_phone) & 1000h) == 0)
                          M         bcf     PCLATH, 4
                          M                 else
                          M         bsf     PCLATH, 4
                          M                 endif   
                          M               endif
                          M             endif
                          M           endif
                          M         endif
                          M       endif
                          M     endif
                          M 
0120   216C               M         call    _phone
0121                      M dlabel
                      00164 
                      00165 ; C:\PBP\KEYPAD~1.PBP           00024      lcdout $fe,l,#i
                      00166         LCDOUT?C        0FEh
0121   30FE               M         movlw   0FEh
                          M         L?CALL  LCDOUT
                          M         RST?RP
                          M     if ((PREV_BANK & 1) != 0)
                          M         bcf     STATUS, RP0
                          M     endif
                          M     if ((PREV_BANK & 2) != 0)
                          M         bcf     STATUS, RP1
                          M     endif
  00000000                M PREV_BANK = 0
                          M 
                          M     ifdef USE_LINKER
                          M       if (CODE_SIZE > 2)
                          M         pagesel LCDOUT
                          M       endif
                          M     else
                          M       if ((LCDOUT) < 1)
                          M         if (CODE_SIZE > 2)
                          M           if (((LCDOUT) & 800h) == 0)
                          M         bcf     PCLATH, 3
                          M         else
                          M         bsf     PCLATH, 3
                          M         endif
                          M         endif
MPASM  5.44                      KEYPAD~1.ASM   4-20-2020  12:51:35         PAGE 34


LOC  OBJECT CODE     LINE SOURCE TEXT
  VALUE

                          M         if (CODE_SIZE > 4)
                          M           if (((LCDOUT) & 1000h) == 0)
                          M         bcf     PCLATH, 4
                          M           else
                          M         bsf     PCLATH, 4
                          M           endif
                          M         endif
                          M       else
                          M         if ((LCDOUT) > $)
                          M           if (CODE_SIZE > 2)
                          M             if (((LCDOUT) & 800h) == 0)
                          M         bcf     PCLATH, 3
                          M             else
                          M         bsf     PCLATH, 3
                          M             endif
                          M           endif
                          M           if (CODE_SIZE > 4)
                          M             if (((LCDOUT) & 1000h) == 0)
                          M         bcf     PCLATH, 4
                          M             else
                          M         bsf     PCLATH, 4
                          M             endif
                          M           endif
                          M         else
                          M           if (CODE_SIZE > 2)
                          M             if (((LCDOUT) & 1800h) == 0)
0122   018A               M         clrf    PCLATH
                          M             else
                          M               if (((LCDOUT) & 800h) == 0)
                          M         bcf     PCLATH, 3
                          M               else
                          M         bsf     PCLATH, 3
                          M               endif
                          M               if (CODE_SIZE > 4)
                          M                 if (((LCDOUT) & 1000h) == 0)
                          M         bcf     PCLATH, 4
                          M                 else
                          M         bsf     PCLATH, 4
                          M                 endif   
                          M               endif
                          M             endif
                          M           endif
                          M         endif
                          M       endif
                          M     endif
                          M 
0123   2028               M         call    LCDOUT
                      00167         LCDOUT?B        _l
                          M         MOVE?BA _l
                          M         CHK?RP  _l
                          M     if (((_l)    & 180h) == 0)
                          M       if (PREV_BANK == 1)
                          M         bcf     STATUS, RP0
MPASM  5.44                      KEYPAD~1.ASM   4-20-2020  12:51:35         PAGE 35


LOC  OBJECT CODE     LINE SOURCE TEXT
  VALUE

                          M       endif
                          M       if (PREV_BANK == 2)
                          M         bcf     STATUS, RP1
                          M       endif
                          M       if (PREV_BANK == 3)
                          M         bcf     STATUS, RP0
                          M         bcf     STATUS, RP1
                          M       endif
  00000000                M PREV_BANK = 0
                          M     endif
                          M 
                          M     if (((_l)    & 180h) == 80h)
                          M       if (PREV_BANK == 0)
                          M         bsf     STATUS, RP0
                          M       endif
                          M       if (PREV_BANK == 2)
                          M         bsf     STATUS, RP0
                          M         bcf     STATUS, RP1
                          M       endif
                          M       if (PREV_BANK == 3)
                          M         bcf     STATUS, RP1
                          M       endif
                          M PREV_BANK = 1
                          M     endif
                          M 
                          M     if (((_l)    & 180h) == 100h)
                          M       if (PREV_BANK == 0)
                          M         bsf     STATUS, RP1
                          M       endif
                          M       if (PREV_BANK == 1)
                          M         bcf     STATUS, RP0
                          M         bsf     STATUS, RP1
                          M       endif
                          M       if (PREV_BANK == 3)
                          M         bcf     STATUS, RP0
                          M       endif
                          M PREV_BANK = 2
                          M     endif
                          M 
                          M     if (((_l)    & 180h) == 180h)
                          M       if (PREV_BANK == 0)
                          M         bsf     STATUS, RP0
                          M         bsf     STATUS, RP1
                          M       endif
                          M       if (PREV_BANK == 1)
                          M         bsf     STATUS, RP1
                          M       endif
                          M       if (PREV_BANK == 2)
                          M         bsf     STATUS, RP0
                          M       endif
                          M PREV_BANK = 3
                          M     endif
0124   083B               M         movf    _l,  W
MPASM  5.44                      KEYPAD~1.ASM   4-20-2020  12:51:35         PAGE 36


LOC  OBJECT CODE     LINE SOURCE TEXT
  VALUE

                          M         L?CALL  LCDOUT
                          M         RST?RP
                          M     if ((PREV_BANK & 1) != 0)
                          M         bcf     STATUS, RP0
                          M     endif
                          M     if ((PREV_BANK & 2) != 0)
                          M         bcf     STATUS, RP1
                          M     endif
  00000000                M PREV_BANK = 0
                          M 
                          M     ifdef USE_LINKER
                          M       if (CODE_SIZE > 2)
                          M         pagesel LCDOUT
                          M       endif
                          M     else
                          M       if ((LCDOUT) < 1)
                          M         if (CODE_SIZE > 2)
                          M           if (((LCDOUT) & 800h) == 0)
                          M         bcf     PCLATH, 3
                          M         else
                          M         bsf     PCLATH, 3
                          M         endif
                          M         endif
                          M         if (CODE_SIZE > 4)
                          M           if (((LCDOUT) & 1000h) == 0)
                          M         bcf     PCLATH, 4
                          M           else
                          M         bsf     PCLATH, 4
                          M           endif
                          M         endif
                          M       else
                          M         if ((LCDOUT) > $)
                          M           if (CODE_SIZE > 2)
                          M             if (((LCDOUT) & 800h) == 0)
                          M         bcf     PCLATH, 3
                          M             else
                          M         bsf     PCLATH, 3
                          M             endif
                          M           endif
                          M           if (CODE_SIZE > 4)
                          M             if (((LCDOUT) & 1000h) == 0)
                          M         bcf     PCLATH, 4
                          M             else
                          M         bsf     PCLATH, 4
                          M             endif
                          M           endif
                          M         else
                          M           if (CODE_SIZE > 2)
                          M             if (((LCDOUT) & 1800h) == 0)
0125   018A               M         clrf    PCLATH
                          M             else
                          M               if (((LCDOUT) & 800h) == 0)
                          M         bcf     PCLATH, 3
MPASM  5.44                      KEYPAD~1.ASM   4-20-2020  12:51:35         PAGE 37


LOC  OBJECT CODE     LINE SOURCE TEXT
  VALUE

                          M               else
                          M         bsf     PCLATH, 3
                          M               endif
                          M               if (CODE_SIZE > 4)
                          M                 if (((LCDOUT) & 1000h) == 0)
                          M         bcf     PCLATH, 4
                          M                 else
                          M         bsf     PCLATH, 4
                          M                 endif   
                          M               endif
                          M             endif
                          M           endif
                          M         endif
                          M       endif
                          M     endif
                          M 
0126   2028               M         call    LCDOUT
                      00168         LCDOUTD?B       _i
                          M         MOVE?BA _i
                          M         CHK?RP  _i
                          M     if (((_i)    & 180h) == 0)
                          M       if (PREV_BANK == 1)
                          M         bcf     STATUS, RP0
                          M       endif
                          M       if (PREV_BANK == 2)
                          M         bcf     STATUS, RP1
                          M       endif
                          M       if (PREV_BANK == 3)
                          M         bcf     STATUS, RP0
                          M         bcf     STATUS, RP1
                          M       endif
  00000000                M PREV_BANK = 0
                          M     endif
                          M 
                          M     if (((_i)    & 180h) == 80h)
                          M       if (PREV_BANK == 0)
                          M         bsf     STATUS, RP0
                          M       endif
                          M       if (PREV_BANK == 2)
                          M         bsf     STATUS, RP0
                          M         bcf     STATUS, RP1
                          M       endif
                          M       if (PREV_BANK == 3)
                          M         bcf     STATUS, RP1
                          M       endif
                          M PREV_BANK = 1
                          M     endif
                          M 
                          M     if (((_i)    & 180h) == 100h)
                          M       if (PREV_BANK == 0)
                          M         bsf     STATUS, RP1
                          M       endif
                          M       if (PREV_BANK == 1)
MPASM  5.44                      KEYPAD~1.ASM   4-20-2020  12:51:35         PAGE 38


LOC  OBJECT CODE     LINE SOURCE TEXT
  VALUE

                          M         bcf     STATUS, RP0
                          M         bsf     STATUS, RP1
                          M       endif
                          M       if (PREV_BANK == 3)
                          M         bcf     STATUS, RP0
                          M       endif
                          M PREV_BANK = 2
                          M     endif
                          M 
                          M     if (((_i)    & 180h) == 180h)
                          M       if (PREV_BANK == 0)
                          M         bsf     STATUS, RP0
                          M         bsf     STATUS, RP1
                          M       endif
                          M       if (PREV_BANK == 1)
                          M         bsf     STATUS, RP1
                          M       endif
                          M       if (PREV_BANK == 2)
                          M         bsf     STATUS, RP0
                          M       endif
                          M PREV_BANK = 3
                          M     endif
0127   0838               M         movf    _i,  W
                          M         L?CALL  LCDOUTDEC
                          M         RST?RP
                          M     if ((PREV_BANK & 1) != 0)
                          M         bcf     STATUS, RP0
                          M     endif
                          M     if ((PREV_BANK & 2) != 0)
                          M         bcf     STATUS, RP1
                          M     endif
  00000000                M PREV_BANK = 0
                          M 
                          M     ifdef USE_LINKER
                          M       if (CODE_SIZE > 2)
                          M         pagesel LCDOUTDEC
                          M       endif
                          M     else
                          M       if ((LCDOUTDEC) < 1)
                          M         if (CODE_SIZE > 2)
                          M           if (((LCDOUTDEC) & 800h) == 0)
                          M         bcf     PCLATH, 3
                          M         else
                          M         bsf     PCLATH, 3
                          M         endif
                          M         endif
                          M         if (CODE_SIZE > 4)
                          M           if (((LCDOUTDEC) & 1000h) == 0)
                          M         bcf     PCLATH, 4
                          M           else
                          M         bsf     PCLATH, 4
                          M           endif
                          M         endif
MPASM  5.44                      KEYPAD~1.ASM   4-20-2020  12:51:35         PAGE 39


LOC  OBJECT CODE     LINE SOURCE TEXT
  VALUE

                          M       else
                          M         if ((LCDOUTDEC) > $)
                          M           if (CODE_SIZE > 2)
                          M             if (((LCDOUTDEC) & 800h) == 0)
                          M         bcf     PCLATH, 3
                          M             else
                          M         bsf     PCLATH, 3
                          M             endif
                          M           endif
                          M           if (CODE_SIZE > 4)
                          M             if (((LCDOUTDEC) & 1000h) == 0)
                          M         bcf     PCLATH, 4
                          M             else
                          M         bsf     PCLATH, 4
                          M             endif
                          M           endif
                          M         else
                          M           if (CODE_SIZE > 2)
                          M             if (((LCDOUTDEC) & 1800h) == 0)
0128   018A               M         clrf    PCLATH
                          M             else
                          M               if (((LCDOUTDEC) & 800h) == 0)
                          M         bcf     PCLATH, 3
                          M               else
                          M         bsf     PCLATH, 3
                          M               endif
                          M               if (CODE_SIZE > 4)
                          M                 if (((LCDOUTDEC) & 1000h) == 0)
                          M         bcf     PCLATH, 4
                          M                 else
                          M         bsf     PCLATH, 4
                          M                 endif   
                          M               endif
                          M             endif
                          M           endif
                          M         endif
                          M       endif
                          M     endif
                          M 
0129   2009               M         call    LCDOUTDEC
                      00169 
                      00170 ; C:\PBP\KEYPAD~1.PBP           00025      l=l+1
                      00171         ADD?BCB _l, 001h, _l
                          M     if ((_l)   == (_l))
                          M       if ((001h) == 1)
                          M         CHK?RP  _l
                          M     if (((_l)    & 180h) == 0)
                          M       if (PREV_BANK == 1)
                          M         bcf     STATUS, RP0
                          M       endif
                          M       if (PREV_BANK == 2)
                          M         bcf     STATUS, RP1
                          M       endif
MPASM  5.44                      KEYPAD~1.ASM   4-20-2020  12:51:35         PAGE 40


LOC  OBJECT CODE     LINE SOURCE TEXT
  VALUE

                          M       if (PREV_BANK == 3)
                          M         bcf     STATUS, RP0
                          M         bcf     STATUS, RP1
                          M       endif
  00000000                M PREV_BANK = 0
                          M     endif
                          M 
                          M     if (((_l)    & 180h) == 80h)
                          M       if (PREV_BANK == 0)
                          M         bsf     STATUS, RP0
                          M       endif
                          M       if (PREV_BANK == 2)
                          M         bsf     STATUS, RP0
                          M         bcf     STATUS, RP1
                          M       endif
                          M       if (PREV_BANK == 3)
                          M         bcf     STATUS, RP1
                          M       endif
                          M PREV_BANK = 1
                          M     endif
                          M 
                          M     if (((_l)    & 180h) == 100h)
                          M       if (PREV_BANK == 0)
                          M         bsf     STATUS, RP1
                          M       endif
                          M       if (PREV_BANK == 1)
                          M         bcf     STATUS, RP0
                          M         bsf     STATUS, RP1
                          M       endif
                          M       if (PREV_BANK == 3)
                          M         bcf     STATUS, RP0
                          M       endif
                          M PREV_BANK = 2
                          M     endif
                          M 
                          M     if (((_l)    & 180h) == 180h)
                          M       if (PREV_BANK == 0)
                          M         bsf     STATUS, RP0
                          M         bsf     STATUS, RP1
                          M       endif
                          M       if (PREV_BANK == 1)
                          M         bsf     STATUS, RP1
                          M       endif
                          M       if (PREV_BANK == 2)
                          M         bsf     STATUS, RP0
                          M       endif
                          M PREV_BANK = 3
                          M     endif
012A   0ABB               M         incf    _l,   F
                          M       else
                          M         movlw   001h
                          M         CHK?RP  _l
                          M         addwf   _l,  F
MPASM  5.44                      KEYPAD~1.ASM   4-20-2020  12:51:35         PAGE 41


LOC  OBJECT CODE     LINE SOURCE TEXT
  VALUE

                          M       endif
                          M     else
                          M       if ((001h) == 1)
                          M         CHK?RP  _l
                          M         incf    _l,  W
                          M         MOVE?AB _l
                          M       else
                          M         movlw   001h
                          M         CHK?RP  _l
                          M         addwf   _l,  W
                          M         MOVE?AB _l
                          M       endif
                          M     endif
                      00172 
                      00173 ; C:\PBP\KEYPAD~1.PBP           00026      gosub yaz
                      00174         GOSUB?L _yaz
  0000                    M     local dlabel
                          M     ifdef DEBUG_STACK
                          M         CHK?RP  DEBUG_STACK
                          M       ifdef DEBUG_STACK_ADDR
                          M         bcf     STATUS, C
                          M         rlf     DEBUG_STACK, W
                          M         addlw   DEBUG_STACK_ADDR
                          M         movwf   FSR
                          M         movlw   low (dlabel)
                          M         movwf   INDF
                          M         incf    FSR, F
                          M         movlw   high (dlabel)
                          M         movwf   INDF
                          M       endif
                          M         incf    DEBUG_STACK, F
                          M     endif
                          M         L?CALL  _yaz
                          M         RST?RP
                          M     if ((PREV_BANK & 1) != 0)
                          M         bcf     STATUS, RP0
                          M     endif
                          M     if ((PREV_BANK & 2) != 0)
                          M         bcf     STATUS, RP1
                          M     endif
  00000000                M PREV_BANK = 0
                          M 
                          M     ifdef USE_LINKER
                          M       if (CODE_SIZE > 2)
                          M         pagesel _yaz
                          M       endif
                          M     else
                          M       if ((_yaz)  < 1)
                          M         if (CODE_SIZE > 2)
                          M           if (((_yaz)  & 800h) == 0)
                          M         bcf     PCLATH, 3
                          M         else
                          M         bsf     PCLATH, 3
MPASM  5.44                      KEYPAD~1.ASM   4-20-2020  12:51:35         PAGE 42


LOC  OBJECT CODE     LINE SOURCE TEXT
  VALUE

                          M         endif
                          M         endif
                          M         if (CODE_SIZE > 4)
                          M           if (((_yaz)  & 1000h) == 0)
                          M         bcf     PCLATH, 4
                          M           else
                          M         bsf     PCLATH, 4
                          M           endif
                          M         endif
                          M       else
                          M         if ((_yaz)  > $)
                          M           if (CODE_SIZE > 2)
                          M             if (((_yaz)  & 800h) == 0)
012B   118A               M         bcf     PCLATH, 3
                          M             else
                          M         bsf     PCLATH, 3
                          M             endif
                          M           endif
                          M           if (CODE_SIZE > 4)
                          M             if (((_yaz)  & 1000h) == 0)
012C   120A               M         bcf     PCLATH, 4
                          M             else
                          M         bsf     PCLATH, 4
                          M             endif
                          M           endif
                          M         else
                          M           if (CODE_SIZE > 2)
                          M             if (((_yaz)  & 1800h) == 0)
                          M         clrf    PCLATH
                          M             else
                          M               if (((_yaz)  & 800h) == 0)
                          M         bcf     PCLATH, 3
                          M               else
                          M         bsf     PCLATH, 3
                          M               endif
                          M               if (CODE_SIZE > 4)
                          M                 if (((_yaz)  & 1000h) == 0)
                          M         bcf     PCLATH, 4
                          M                 else
                          M         bsf     PCLATH, 4
                          M                 endif   
                          M               endif
                          M             endif
                          M           endif
                          M         endif
                          M       endif
                          M     endif
                          M 
012D   213D               M         call    _yaz
012E                      M dlabel
                      00175 
                      00176 ; C:\PBP\KEYPAD~1.PBP           00027      pause 500
                      00177         PAUSE?C 001F4h
MPASM  5.44                      KEYPAD~1.ASM   4-20-2020  12:51:35         PAGE 43


LOC  OBJECT CODE     LINE SOURCE TEXT
  VALUE

                          M     if (((001F4h) >> 8) == 0)
                          M         MOVE?CA 001F4h
                          M         L?CALL  PAUSE
                          M     else
                          M         MOVE?CB (001F4h) >> 8, R1 + 1
                          M         CHK?RP  R1 + 1
                          M     if (((R1 + 1) & 180h) == 0)
                          M       if (PREV_BANK == 1)
                          M         bcf     STATUS, RP0
                          M       endif
                          M       if (PREV_BANK == 2)
                          M         bcf     STATUS, RP1
                          M       endif
                          M       if (PREV_BANK == 3)
                          M         bcf     STATUS, RP0
                          M         bcf     STATUS, RP1
                          M       endif
  00000000                M PREV_BANK = 0
                          M     endif
                          M 
                          M     if (((R1 + 1) & 180h) == 80h)
                          M       if (PREV_BANK == 0)
                          M         bsf     STATUS, RP0
                          M       endif
                          M       if (PREV_BANK == 2)
                          M         bsf     STATUS, RP0
                          M         bcf     STATUS, RP1
                          M       endif
                          M       if (PREV_BANK == 3)
                          M         bcf     STATUS, RP1
                          M       endif
                          M PREV_BANK = 1
                          M     endif
                          M 
                          M     if (((R1 + 1) & 180h) == 100h)
                          M       if (PREV_BANK == 0)
                          M         bsf     STATUS, RP1
                          M       endif
                          M       if (PREV_BANK == 1)
                          M         bcf     STATUS, RP0
                          M         bsf     STATUS, RP1
                          M       endif
                          M       if (PREV_BANK == 3)
                          M         bcf     STATUS, RP0
                          M       endif
                          M PREV_BANK = 2
                          M     endif
                          M 
                          M     if (((R1 + 1) & 180h) == 180h)
                          M       if (PREV_BANK == 0)
                          M         bsf     STATUS, RP0
                          M         bsf     STATUS, RP1
                          M       endif
MPASM  5.44                      KEYPAD~1.ASM   4-20-2020  12:51:35         PAGE 44


LOC  OBJECT CODE     LINE SOURCE TEXT
  VALUE

                          M       if (PREV_BANK == 1)
                          M         bsf     STATUS, RP1
                          M       endif
                          M       if (PREV_BANK == 2)
                          M         bsf     STATUS, RP0
                          M       endif
                          M PREV_BANK = 3
                          M     endif
                          M     if (low ((001F4h) >> 8) == 0)
                          M         clrf    R1 + 1
                          M     else
012E   3001               M         movlw   low ((001F4h) >> 8)
012F   00A3               M         movwf   R1 + 1
                          M     endif
                          M         MOVE?CA low (001F4h)
0130   30F4               M         movlw   low (low (001F4h))
                          M         L?CALL  PAUSEL
                          M         RST?RP
                          M     if ((PREV_BANK & 1) != 0)
                          M         bcf     STATUS, RP0
                          M     endif
                          M     if ((PREV_BANK & 2) != 0)
                          M         bcf     STATUS, RP1
                          M     endif
  00000000                M PREV_BANK = 0
                          M 
                          M     ifdef USE_LINKER
                          M       if (CODE_SIZE > 2)
                          M         pagesel PAUSEL
                          M       endif
                          M     else
                          M       if ((PAUSEL) < 1)
                          M         if (CODE_SIZE > 2)
                          M           if (((PAUSEL) & 800h) == 0)
                          M         bcf     PCLATH, 3
                          M         else
                          M         bsf     PCLATH, 3
                          M         endif
                          M         endif
                          M         if (CODE_SIZE > 4)
                          M           if (((PAUSEL) & 1000h) == 0)
                          M         bcf     PCLATH, 4
                          M           else
                          M         bsf     PCLATH, 4
                          M           endif
                          M         endif
                          M       else
                          M         if ((PAUSEL) > $)
                          M           if (CODE_SIZE > 2)
                          M             if (((PAUSEL) & 800h) == 0)
                          M         bcf     PCLATH, 3
                          M             else
                          M         bsf     PCLATH, 3
MPASM  5.44                      KEYPAD~1.ASM   4-20-2020  12:51:35         PAGE 45


LOC  OBJECT CODE     LINE SOURCE TEXT
  VALUE

                          M             endif
                          M           endif
                          M           if (CODE_SIZE > 4)
                          M             if (((PAUSEL) & 1000h) == 0)
                          M         bcf     PCLATH, 4
                          M             else
                          M         bsf     PCLATH, 4
                          M             endif
                          M           endif
                          M         else
                          M           if (CODE_SIZE > 2)
                          M             if (((PAUSEL) & 1800h) == 0)
0131   018A               M         clrf    PCLATH
                          M             else
                          M               if (((PAUSEL) & 800h) == 0)
                          M         bcf     PCLATH, 3
                          M               else
                          M         bsf     PCLATH, 3
                          M               endif
                          M               if (CODE_SIZE > 4)
                          M                 if (((PAUSEL) & 1000h) == 0)
                          M         bcf     PCLATH, 4
                          M                 else
                          M         bsf     PCLATH, 4
                          M                 endif   
                          M               endif
                          M             endif
                          M           endif
                          M         endif
                          M       endif
                          M     endif
                          M 
0132   20B5               M         call    PAUSEL
                          M     endif
                      00178 
                      00179 ; C:\PBP\KEYPAD~1.PBP           00028   next j
                      00180         NEXT?BCL        _j, 001h, L00001
                          M     if ((001h) == 1)
                          M         CHK?RP  _j
                          M     if (((_j)    & 180h) == 0)
                          M       if (PREV_BANK == 1)
                          M         bcf     STATUS, RP0
                          M       endif
                          M       if (PREV_BANK == 2)
                          M         bcf     STATUS, RP1
                          M       endif
                          M       if (PREV_BANK == 3)
                          M         bcf     STATUS, RP0
                          M         bcf     STATUS, RP1
                          M       endif
  00000000                M PREV_BANK = 0
                          M     endif
                          M 
MPASM  5.44                      KEYPAD~1.ASM   4-20-2020  12:51:35         PAGE 46


LOC  OBJECT CODE     LINE SOURCE TEXT
  VALUE

                          M     if (((_j)    & 180h) == 80h)
                          M       if (PREV_BANK == 0)
                          M         bsf     STATUS, RP0
                          M       endif
                          M       if (PREV_BANK == 2)
                          M         bsf     STATUS, RP0
                          M         bcf     STATUS, RP1
                          M       endif
                          M       if (PREV_BANK == 3)
                          M         bcf     STATUS, RP1
                          M       endif
                          M PREV_BANK = 1
                          M     endif
                          M 
                          M     if (((_j)    & 180h) == 100h)
                          M       if (PREV_BANK == 0)
                          M         bsf     STATUS, RP1
                          M       endif
                          M       if (PREV_BANK == 1)
                          M         bcf     STATUS, RP0
                          M         bsf     STATUS, RP1
                          M       endif
                          M       if (PREV_BANK == 3)
                          M         bcf     STATUS, RP0
                          M       endif
                          M PREV_BANK = 2
                          M     endif
                          M 
                          M     if (((_j)    & 180h) == 180h)
                          M       if (PREV_BANK == 0)
                          M         bsf     STATUS, RP0
                          M         bsf     STATUS, RP1
                          M       endif
                          M       if (PREV_BANK == 1)
                          M         bsf     STATUS, RP1
                          M       endif
                          M       if (PREV_BANK == 2)
                          M         bsf     STATUS, RP0
                          M       endif
                          M PREV_BANK = 3
                          M     endif
                          M       if ((PREV_BANK == 0) & (CODE_SIZE <= 2))
                          M         incfsz  _j,  F
                          M         goto    L00001
                          M       else
0133   0AB9               M         incf    _j,  F
                          M         BIT?GOTO 0, STATUS, Z, L00001
                          M     ifdef USE_LINKER
                          M         CLRWDT?
                          M     else
                          M       if ($ == (L00001))
                          M         CLRWDT?
                          M       endif
MPASM  5.44                      KEYPAD~1.ASM   4-20-2020  12:51:35         PAGE 47


LOC  OBJECT CODE     LINE SOURCE TEXT
  VALUE

                          M     endif
                          M 
                          M     ifdef USE_LINKER
                          M       if (CODE_SIZE > 2)
                          M         pagesel L00001
                          M       endif
                          M     else
                          M       if (CODE_SIZE > 2)
                          M         if (((L00001) & 800h) == 0)
0134   118A               M         bcf     PCLATH, 3
                          M         else
                          M         bsf     PCLATH, 3
                          M         endif
                          M       endif
                          M       if (CODE_SIZE > 4)
                          M         if (((L00001) & 1000h) == 0)
0135   120A               M         bcf     PCLATH, 4
                          M         else
                          M         bsf     PCLATH, 4
                          M         endif
                          M       endif
                          M     endif
                          M 
                          M     if (((STATUS) & 0ff80h) != 0)
                          M         CHK?RP  STATUS
                          M         bcf     STATUS, DC
                          M       if ((0)      == 0)
                          M         btfss   STATUS, Z
                          M       else
                          M         btfsc   STATUS, Z
                          M       endif
                          M         bsf     STATUS, DC
                          M         RST?RP
                          M         btfsc   STATUS, DC
                          M     else
                          M         RST?RP
                          M     if ((PREV_BANK & 1) != 0)
                          M         bcf     STATUS, RP0
                          M     endif
                          M     if ((PREV_BANK & 2) != 0)
                          M         bcf     STATUS, RP1
                          M     endif
  00000000                M PREV_BANK = 0
                          M       if ((0)      == 0)
0136   1D03               M         btfss   STATUS, Z
                          M       else
                          M         btfsc   STATUS, Z
                          M       endif
                          M     endif
                          M 
0137   2917               M         goto    L00001
                          M       endif
                          M     else
MPASM  5.44                      KEYPAD~1.ASM   4-20-2020  12:51:35         PAGE 48


LOC  OBJECT CODE     LINE SOURCE TEXT
  VALUE

                          M         movlw   001h
                          M         CHK?RP  _j
                          M         addwf   _j,  F
                          M       if ((001h) <= 255)
                          M         BIT?GOTO 0, STATUS, C, L00001
                          M       endif
                          M     endif
                      00181         LABEL?L L00002  
                          M         RST?RP
                          M     if ((PREV_BANK & 1) != 0)
                          M         bcf     STATUS, RP0
                          M     endif
                          M     if ((PREV_BANK & 2) != 0)
                          M         bcf     STATUS, RP1
                          M     endif
  00000000                M PREV_BANK = 0
                          M     ifdef PM_USED
                          M         LALL
                          M L00002
                          M         XALL
                          M     else
0138                      M L00002
                          M     endif
                      00182 
                      00183 ; C:\PBP\KEYPAD~1.PBP           00029   gosub oku
                      00184         GOSUB?L _oku
  0000                    M     local dlabel
                          M     ifdef DEBUG_STACK
                          M         CHK?RP  DEBUG_STACK
                          M       ifdef DEBUG_STACK_ADDR
                          M         bcf     STATUS, C
                          M         rlf     DEBUG_STACK, W
                          M         addlw   DEBUG_STACK_ADDR
                          M         movwf   FSR
                          M         movlw   low (dlabel)
                          M         movwf   INDF
                          M         incf    FSR, F
                          M         movlw   high (dlabel)
                          M         movwf   INDF
                          M       endif
                          M         incf    DEBUG_STACK, F
                          M     endif
                          M         L?CALL  _oku
                          M         RST?RP
                          M     if ((PREV_BANK & 1) != 0)
                          M         bcf     STATUS, RP0
                          M     endif
                          M     if ((PREV_BANK & 2) != 0)
                          M         bcf     STATUS, RP1
                          M     endif
  00000000                M PREV_BANK = 0
                          M 
                          M     ifdef USE_LINKER
MPASM  5.44                      KEYPAD~1.ASM   4-20-2020  12:51:35         PAGE 49


LOC  OBJECT CODE     LINE SOURCE TEXT
  VALUE

                          M       if (CODE_SIZE > 2)
                          M         pagesel _oku
                          M       endif
                          M     else
                          M       if ((_oku)  < 1)
                          M         if (CODE_SIZE > 2)
                          M           if (((_oku)  & 800h) == 0)
                          M         bcf     PCLATH, 3
                          M         else
                          M         bsf     PCLATH, 3
                          M         endif
                          M         endif
                          M         if (CODE_SIZE > 4)
                          M           if (((_oku)  & 1000h) == 0)
                          M         bcf     PCLATH, 4
                          M           else
                          M         bsf     PCLATH, 4
                          M           endif
                          M         endif
                          M       else
                          M         if ((_oku)  > $)
                          M           if (CODE_SIZE > 2)
                          M             if (((_oku)  & 800h) == 0)
0138   118A               M         bcf     PCLATH, 3
                          M             else
                          M         bsf     PCLATH, 3
                          M             endif
                          M           endif
                          M           if (CODE_SIZE > 4)
                          M             if (((_oku)  & 1000h) == 0)
0139   120A               M         bcf     PCLATH, 4
                          M             else
                          M         bsf     PCLATH, 4
                          M             endif
                          M           endif
                          M         else
                          M           if (CODE_SIZE > 2)
                          M             if (((_oku)  & 1800h) == 0)
                          M         clrf    PCLATH
                          M             else
                          M               if (((_oku)  & 800h) == 0)
                          M         bcf     PCLATH, 3
                          M               else
                          M         bsf     PCLATH, 3
                          M               endif
                          M               if (CODE_SIZE > 4)
                          M                 if (((_oku)  & 1000h) == 0)
                          M         bcf     PCLATH, 4
                          M                 else
                          M         bsf     PCLATH, 4
                          M                 endif   
                          M               endif
                          M             endif
MPASM  5.44                      KEYPAD~1.ASM   4-20-2020  12:51:35         PAGE 50


LOC  OBJECT CODE     LINE SOURCE TEXT
  VALUE

                          M           endif
                          M         endif
                          M       endif
                          M     endif
                          M 
013A   2145               M         call    _oku
013B                      M dlabel
                      00185 
                      00186 ; C:\PBP\KEYPAD~1.PBP           00030   goto label
                      00187         GOTO?L  _label
                          M         L?GOTO  _label
                          M     ifdef USE_LINKER
                          M         CLRWDT?
                          M     else
                          M       if ($ == (_label))
                          M         CLRWDT?
                          M       endif
                          M     endif
                          M 
                          M         RST?RP
                          M     if ((PREV_BANK & 1) != 0)
                          M         bcf     STATUS, RP0
                          M     endif
                          M     if ((PREV_BANK & 2) != 0)
                          M         bcf     STATUS, RP1
                          M     endif
  00000000                M PREV_BANK = 0
                          M 
                          M     ifdef USE_LINKER
                          M       if (CODE_SIZE > 2)
                          M         pagesel _label
                          M       endif
                          M     else
                          M       if ((_label) < 1)
                          M         if (CODE_SIZE > 2)
                          M           if (((_label) & 800h) == 0)
                          M         bcf     PCLATH, 3
                          M           else
                          M         bsf     PCLATH, 3
                          M           endif
                          M         endif
                          M         if (CODE_SIZE > 4)
                          M           if (((_label) & 1000h) == 0)
                          M         bcf     PCLATH, 4
                          M           else
                          M         bsf     PCLATH, 4
                          M           endif
                          M         endif
                          M       else
                          M         if ((_label) > $)
                          M           if (CODE_SIZE > 2)
                          M             if (((_label) & 800h) == 0)
                          M         bcf     PCLATH, 3
MPASM  5.44                      KEYPAD~1.ASM   4-20-2020  12:51:35         PAGE 51


LOC  OBJECT CODE     LINE SOURCE TEXT
  VALUE

                          M             else
                          M         bsf     PCLATH, 3
                          M             endif
                          M           endif
                          M           if (CODE_SIZE > 4)
                          M             if (((_label) & 1000h) == 0)
                          M         bcf     PCLATH, 4
                          M             else
                          M         bsf     PCLATH, 4
                          M             endif
                          M           endif
                          M         else
                          M           if (CODE_SIZE > 2)
                          M             if (((_label) & 1800h) == 0)
013B   018A               M         clrf    PCLATH
                          M             else
                          M               if (((_label) & 800h) == 0)
                          M         bcf     PCLATH, 3
                          M               else
                          M         bsf     PCLATH, 3
                          M               endif
                          M               if (CODE_SIZE > 4)
                          M                 if (((_label) & 1000h) == 0)
                          M         bcf     PCLATH, 4
                          M                 else
                          M         bsf     PCLATH, 4
                          M                 endif
                          M               endif
                          M             endif
                          M           endif
                          M         endif
                          M       endif
                          M     endif
                          M 
013C   290E               M         goto    _label
                      00188 
                      00189 ; C:\PBP\KEYPAD~1.PBP           00032   yaz:
                      00190 
                      00191         LABEL?L _yaz    
                          M         RST?RP
                          M     if ((PREV_BANK & 1) != 0)
                          M         bcf     STATUS, RP0
                          M     endif
                          M     if ((PREV_BANK & 2) != 0)
                          M         bcf     STATUS, RP1
                          M     endif
  00000000                M PREV_BANK = 0
                          M     ifdef PM_USED
                          M         LALL
                          M _yaz
                          M         XALL
                          M     else
013D                      M _yaz
MPASM  5.44                      KEYPAD~1.ASM   4-20-2020  12:51:35         PAGE 52


LOC  OBJECT CODE     LINE SOURCE TEXT
  VALUE

                          M     endif
                      00192 
                      00193 ; C:\PBP\KEYPAD~1.PBP           00033        write j,i
                      00194         WRITEADDRESS?B  _j
                          M         MOVE?BB _j,  EEADR
                          M         CHK?RP  _j
                          M     if (((_j)    & 180h) == 0)
                          M       if (PREV_BANK == 1)
                          M         bcf     STATUS, RP0
                          M       endif
                          M       if (PREV_BANK == 2)
                          M         bcf     STATUS, RP1
                          M       endif
                          M       if (PREV_BANK == 3)
                          M         bcf     STATUS, RP0
                          M         bcf     STATUS, RP1
                          M       endif
  00000000                M PREV_BANK = 0
                          M     endif
                          M 
                          M     if (((_j)    & 180h) == 80h)
                          M       if (PREV_BANK == 0)
                          M         bsf     STATUS, RP0
                          M       endif
                          M       if (PREV_BANK == 2)
                          M         bsf     STATUS, RP0
                          M         bcf     STATUS, RP1
                          M       endif
                          M       if (PREV_BANK == 3)
                          M         bcf     STATUS, RP1
                          M       endif
                          M PREV_BANK = 1
                          M     endif
                          M 
                          M     if (((_j)    & 180h) == 100h)
                          M       if (PREV_BANK == 0)
                          M         bsf     STATUS, RP1
                          M       endif
                          M       if (PREV_BANK == 1)
                          M         bcf     STATUS, RP0
                          M         bsf     STATUS, RP1
                          M       endif
                          M       if (PREV_BANK == 3)
                          M         bcf     STATUS, RP0
                          M       endif
                          M PREV_BANK = 2
                          M     endif
                          M 
                          M     if (((_j)    & 180h) == 180h)
                          M       if (PREV_BANK == 0)
                          M         bsf     STATUS, RP0
                          M         bsf     STATUS, RP1
                          M       endif
MPASM  5.44                      KEYPAD~1.ASM   4-20-2020  12:51:35         PAGE 53


LOC  OBJECT CODE     LINE SOURCE TEXT
  VALUE

                          M       if (PREV_BANK == 1)
                          M         bsf     STATUS, RP1
                          M       endif
                          M       if (PREV_BANK == 2)
                          M         bsf     STATUS, RP0
                          M       endif
                          M PREV_BANK = 3
                          M     endif
013D   0839               M         movf    _j,  W
                          M         CHK?RP  EEADR
                          M     if (((EEADR) & 180h) == 0)
                          M       if (PREV_BANK == 1)
                          M         bcf     STATUS, RP0
                          M       endif
                          M       if (PREV_BANK == 2)
                          M         bcf     STATUS, RP1
                          M       endif
                          M       if (PREV_BANK == 3)
                          M         bcf     STATUS, RP0
                          M         bcf     STATUS, RP1
                          M       endif
                          M PREV_BANK = 0
                          M     endif
                          M 
                          M     if (((EEADR) & 180h) == 80h)
                          M       if (PREV_BANK == 0)
                          M         bsf     STATUS, RP0
                          M       endif
                          M       if (PREV_BANK == 2)
                          M         bsf     STATUS, RP0
                          M         bcf     STATUS, RP1
                          M       endif
                          M       if (PREV_BANK == 3)
                          M         bcf     STATUS, RP1
                          M       endif
                          M PREV_BANK = 1
                          M     endif
                          M 
                          M     if (((EEADR) & 180h) == 100h)
                          M       if (PREV_BANK == 0)
013E   1703               M         bsf     STATUS, RP1
                          M       endif
                          M       if (PREV_BANK == 1)
                          M         bcf     STATUS, RP0
                          M         bsf     STATUS, RP1
                          M       endif
                          M       if (PREV_BANK == 3)
                          M         bcf     STATUS, RP0
                          M       endif
  00000002                M PREV_BANK = 2
                          M     endif
                          M 
                          M     if (((EEADR) & 180h) == 180h)
MPASM  5.44                      KEYPAD~1.ASM   4-20-2020  12:51:35         PAGE 54


LOC  OBJECT CODE     LINE SOURCE TEXT
  VALUE

                          M       if (PREV_BANK == 0)
                          M         bsf     STATUS, RP0
                          M         bsf     STATUS, RP1
                          M       endif
                          M       if (PREV_BANK == 1)
                          M         bsf     STATUS, RP1
                          M       endif
                          M       if (PREV_BANK == 2)
                          M         bsf     STATUS, RP0
                          M       endif
                          M PREV_BANK = 3
                          M     endif
013F   008D               M         movwf   EEADR
                      00195         WRITE?B _i
                          M         MOVE?BA _i
                          M         CHK?RP  _i
                          M     if (((_i)    & 180h) == 0)
                          M       if (PREV_BANK == 1)
                          M         bcf     STATUS, RP0
                          M       endif
                          M       if (PREV_BANK == 2)
0140   1303               M         bcf     STATUS, RP1
                          M       endif
                          M       if (PREV_BANK == 3)
                          M         bcf     STATUS, RP0
                          M         bcf     STATUS, RP1
                          M       endif
  00000000                M PREV_BANK = 0
                          M     endif
                          M 
                          M     if (((_i)    & 180h) == 80h)
                          M       if (PREV_BANK == 0)
                          M         bsf     STATUS, RP0
                          M       endif
                          M       if (PREV_BANK == 2)
                          M         bsf     STATUS, RP0
                          M         bcf     STATUS, RP1
                          M       endif
                          M       if (PREV_BANK == 3)
                          M         bcf     STATUS, RP1
                          M       endif
                          M PREV_BANK = 1
                          M     endif
                          M 
                          M     if (((_i)    & 180h) == 100h)
                          M       if (PREV_BANK == 0)
                          M         bsf     STATUS, RP1
                          M       endif
                          M       if (PREV_BANK == 1)
                          M         bcf     STATUS, RP0
                          M         bsf     STATUS, RP1
                          M       endif
                          M       if (PREV_BANK == 3)
MPASM  5.44                      KEYPAD~1.ASM   4-20-2020  12:51:35         PAGE 55


LOC  OBJECT CODE     LINE SOURCE TEXT
  VALUE

                          M         bcf     STATUS, RP0
                          M       endif
                          M PREV_BANK = 2
                          M     endif
                          M 
                          M     if (((_i)    & 180h) == 180h)
                          M       if (PREV_BANK == 0)
                          M         bsf     STATUS, RP0
                          M         bsf     STATUS, RP1
                          M       endif
                          M       if (PREV_BANK == 1)
                          M         bsf     STATUS, RP1
                          M       endif
                          M       if (PREV_BANK == 2)
                          M         bsf     STATUS, RP0
                          M       endif
                          M PREV_BANK = 3
                          M     endif
0141   0838               M         movf    _i,  W
                          M         L?CALL  WRITE
                          M         RST?RP
                          M     if ((PREV_BANK & 1) != 0)
                          M         bcf     STATUS, RP0
                          M     endif
                          M     if ((PREV_BANK & 2) != 0)
                          M         bcf     STATUS, RP1
                          M     endif
  00000000                M PREV_BANK = 0
                          M 
                          M     ifdef USE_LINKER
                          M       if (CODE_SIZE > 2)
                          M         pagesel WRITE
                          M       endif
                          M     else
                          M       if ((WRITE) < 1)
                          M         if (CODE_SIZE > 2)
                          M           if (((WRITE) & 800h) == 0)
                          M         bcf     PCLATH, 3
                          M         else
                          M         bsf     PCLATH, 3
                          M         endif
                          M         endif
                          M         if (CODE_SIZE > 4)
                          M           if (((WRITE) & 1000h) == 0)
                          M         bcf     PCLATH, 4
                          M           else
                          M         bsf     PCLATH, 4
                          M           endif
                          M         endif
                          M       else
                          M         if ((WRITE) > $)
                          M           if (CODE_SIZE > 2)
                          M             if (((WRITE) & 800h) == 0)
MPASM  5.44                      KEYPAD~1.ASM   4-20-2020  12:51:35         PAGE 56


LOC  OBJECT CODE     LINE SOURCE TEXT
  VALUE

                          M         bcf     PCLATH, 3
                          M             else
                          M         bsf     PCLATH, 3
                          M             endif
                          M           endif
                          M           if (CODE_SIZE > 4)
                          M             if (((WRITE) & 1000h) == 0)
                          M         bcf     PCLATH, 4
                          M             else
                          M         bsf     PCLATH, 4
                          M             endif
                          M           endif
                          M         else
                          M           if (CODE_SIZE > 2)
                          M             if (((WRITE) & 1800h) == 0)
0142   018A               M         clrf    PCLATH
                          M             else
                          M               if (((WRITE) & 800h) == 0)
                          M         bcf     PCLATH, 3
                          M               else
                          M         bsf     PCLATH, 3
                          M               endif
                          M               if (CODE_SIZE > 4)
                          M                 if (((WRITE) & 1000h) == 0)
                          M         bcf     PCLATH, 4
                          M                 else
                          M         bsf     PCLATH, 4
                          M                 endif   
                          M               endif
                          M             endif
                          M           endif
                          M         endif
                          M       endif
                          M     endif
                          M 
0143   20A4               M         call    WRITE
                      00196 
                      00197 ; C:\PBP\KEYPAD~1.PBP           00034   return
                      00198         RETURN? 
                          M     ifdef DEBUG_STACK
                          M         CHK?RP  DEBUG_STACK
                          M         decf    DEBUG_STACK, F
                          M     endif
                          M         RST?RP
                          M     if ((PREV_BANK & 1) != 0)
                          M         bcf     STATUS, RP0
                          M     endif
                          M     if ((PREV_BANK & 2) != 0)
                          M         bcf     STATUS, RP1
                          M     endif
  00000000                M PREV_BANK = 0
0144   0008               M         return
                      00199 
MPASM  5.44                      KEYPAD~1.ASM   4-20-2020  12:51:35         PAGE 57


LOC  OBJECT CODE     LINE SOURCE TEXT
  VALUE

                      00200 ; C:\PBP\KEYPAD~1.PBP           00036   oku:
                      00201 
                      00202         LABEL?L _oku    
                          M         RST?RP
                          M     if ((PREV_BANK & 1) != 0)
                          M         bcf     STATUS, RP0
                          M     endif
                          M     if ((PREV_BANK & 2) != 0)
                          M         bcf     STATUS, RP1
                          M     endif
  00000000                M PREV_BANK = 0
                          M     ifdef PM_USED
                          M         LALL
                          M _oku
                          M         XALL
                          M     else
0145                      M _oku
                          M     endif
                      00203 
                      00204 ; C:\PBP\KEYPAD~1.PBP           00037       for j=0 to 10
                      00205         MOVE?CB 000h, _j
                          M         CHK?RP  _j
                          M     if (((_j)    & 180h) == 0)
                          M       if (PREV_BANK == 1)
                          M         bcf     STATUS, RP0
                          M       endif
                          M       if (PREV_BANK == 2)
                          M         bcf     STATUS, RP1
                          M       endif
                          M       if (PREV_BANK == 3)
                          M         bcf     STATUS, RP0
                          M         bcf     STATUS, RP1
                          M       endif
  00000000                M PREV_BANK = 0
                          M     endif
                          M 
                          M     if (((_j)    & 180h) == 80h)
                          M       if (PREV_BANK == 0)
                          M         bsf     STATUS, RP0
                          M       endif
                          M       if (PREV_BANK == 2)
                          M         bsf     STATUS, RP0
                          M         bcf     STATUS, RP1
                          M       endif
                          M       if (PREV_BANK == 3)
                          M         bcf     STATUS, RP1
                          M       endif
                          M PREV_BANK = 1
                          M     endif
                          M 
                          M     if (((_j)    & 180h) == 100h)
                          M       if (PREV_BANK == 0)
                          M         bsf     STATUS, RP1
MPASM  5.44                      KEYPAD~1.ASM   4-20-2020  12:51:35         PAGE 58


LOC  OBJECT CODE     LINE SOURCE TEXT
  VALUE

                          M       endif
                          M       if (PREV_BANK == 1)
                          M         bcf     STATUS, RP0
                          M         bsf     STATUS, RP1
                          M       endif
                          M       if (PREV_BANK == 3)
                          M         bcf     STATUS, RP0
                          M       endif
                          M PREV_BANK = 2
                          M     endif
                          M 
                          M     if (((_j)    & 180h) == 180h)
                          M       if (PREV_BANK == 0)
                          M         bsf     STATUS, RP0
                          M         bsf     STATUS, RP1
                          M       endif
                          M       if (PREV_BANK == 1)
                          M         bsf     STATUS, RP1
                          M       endif
                          M       if (PREV_BANK == 2)
                          M         bsf     STATUS, RP0
                          M       endif
                          M PREV_BANK = 3
                          M     endif
                          M     if (low (000h) == 0)
0145   01B9               M         clrf    _j
                          M     else
                          M         movlw   low (000h)
                          M         movwf   _j
                          M     endif
                      00206         LABEL?L L00003  
                          M         RST?RP
                          M     if ((PREV_BANK & 1) != 0)
                          M         bcf     STATUS, RP0
                          M     endif
                          M     if ((PREV_BANK & 2) != 0)
                          M         bcf     STATUS, RP1
                          M     endif
  00000000                M PREV_BANK = 0
                          M     ifdef PM_USED
                          M         LALL
                          M L00003
                          M         XALL
                          M     else
0146                      M L00003
                          M     endif
                      00207         CMPGT?BCL       _j, 00Ah, L00004
                          M     if ((00Ah) < 0)
                          M         L?GOTO  L00004
                          M     else
                          M       if ((00Ah) < 0ffh)
                          M         CLRWDT?
                          M     ifndef NO_CLRWDT
MPASM  5.44                      KEYPAD~1.ASM   4-20-2020  12:51:35         PAGE 59


LOC  OBJECT CODE     LINE SOURCE TEXT
  VALUE

0146   0064               M         clrwdt
                          M     endif
                          M         MOVE?CA (00Ah) + 1
0147   300B               M         movlw   low ((00Ah) + 1)
                          M         CHK?RP  _j
                          M     if (((_j)    & 180h) == 0)
                          M       if (PREV_BANK == 1)
                          M         bcf     STATUS, RP0
                          M       endif
                          M       if (PREV_BANK == 2)
                          M         bcf     STATUS, RP1
                          M       endif
                          M       if (PREV_BANK == 3)
                          M         bcf     STATUS, RP0
                          M         bcf     STATUS, RP1
                          M       endif
  00000000                M PREV_BANK = 0
                          M     endif
                          M 
                          M     if (((_j)    & 180h) == 80h)
                          M       if (PREV_BANK == 0)
                          M         bsf     STATUS, RP0
                          M       endif
                          M       if (PREV_BANK == 2)
                          M         bsf     STATUS, RP0
                          M         bcf     STATUS, RP1
                          M       endif
                          M       if (PREV_BANK == 3)
                          M         bcf     STATUS, RP1
                          M       endif
                          M PREV_BANK = 1
                          M     endif
                          M 
                          M     if (((_j)    & 180h) == 100h)
                          M       if (PREV_BANK == 0)
                          M         bsf     STATUS, RP1
                          M       endif
                          M       if (PREV_BANK == 1)
                          M         bcf     STATUS, RP0
                          M         bsf     STATUS, RP1
                          M       endif
                          M       if (PREV_BANK == 3)
                          M         bcf     STATUS, RP0
                          M       endif
                          M PREV_BANK = 2
                          M     endif
                          M 
                          M     if (((_j)    & 180h) == 180h)
                          M       if (PREV_BANK == 0)
                          M         bsf     STATUS, RP0
                          M         bsf     STATUS, RP1
                          M       endif
                          M       if (PREV_BANK == 1)
MPASM  5.44                      KEYPAD~1.ASM   4-20-2020  12:51:35         PAGE 60


LOC  OBJECT CODE     LINE SOURCE TEXT
  VALUE

                          M         bsf     STATUS, RP1
                          M       endif
                          M       if (PREV_BANK == 2)
                          M         bsf     STATUS, RP0
                          M       endif
                          M PREV_BANK = 3
                          M     endif
0148   0239               M         subwf   _j,  W
                          M         BIT?GOTO 1, STATUS, C, L00004
                          M     ifdef USE_LINKER
                          M         CLRWDT?
                          M     else
                          M       if ($ == (L00004))
                          M         CLRWDT?
                          M       endif
                          M     endif
                          M 
                          M     ifdef USE_LINKER
                          M       if (CODE_SIZE > 2)
                          M         pagesel L00004
                          M       endif
                          M     else
                          M       if (CODE_SIZE > 2)
                          M         if (((L00004) & 800h) == 0)
0149   118A               M         bcf     PCLATH, 3
                          M         else
                          M         bsf     PCLATH, 3
                          M         endif
                          M       endif
                          M       if (CODE_SIZE > 4)
                          M         if (((L00004) & 1000h) == 0)
014A   120A               M         bcf     PCLATH, 4
                          M         else
                          M         bsf     PCLATH, 4
                          M         endif
                          M       endif
                          M     endif
                          M 
                          M     if (((STATUS) & 0ff80h) != 0)
                          M         CHK?RP  STATUS
                          M         bcf     STATUS, DC
                          M       if ((1)      == 0)
                          M         btfss   STATUS, C
                          M       else
                          M         btfsc   STATUS, C
                          M       endif
                          M         bsf     STATUS, DC
                          M         RST?RP
                          M         btfsc   STATUS, DC
                          M     else
                          M         RST?RP
                          M     if ((PREV_BANK & 1) != 0)
                          M         bcf     STATUS, RP0
MPASM  5.44                      KEYPAD~1.ASM   4-20-2020  12:51:35         PAGE 61


LOC  OBJECT CODE     LINE SOURCE TEXT
  VALUE

                          M     endif
                          M     if ((PREV_BANK & 2) != 0)
                          M         bcf     STATUS, RP1
                          M     endif
  00000000                M PREV_BANK = 0
                          M       if ((1)      == 0)
                          M         btfss   STATUS, C
                          M       else
014B   1803               M         btfsc   STATUS, C
                          M       endif
                          M     endif
                          M 
014C   2965               M         goto    L00004
                          M       endif
                          M     endif
                      00208 
                      00209 ; C:\PBP\KEYPAD~1.PBP           00038           read j,k
                      00210         READADDRESS?B   _j
                          M         MOVE?BB _j,  EEADR
                          M         CHK?RP  _j
                          M     if (((_j)    & 180h) == 0)
                          M       if (PREV_BANK == 1)
                          M         bcf     STATUS, RP0
                          M       endif
                          M       if (PREV_BANK == 2)
                          M         bcf     STATUS, RP1
                          M       endif
                          M       if (PREV_BANK == 3)
                          M         bcf     STATUS, RP0
                          M         bcf     STATUS, RP1
                          M       endif
  00000000                M PREV_BANK = 0
                          M     endif
                          M 
                          M     if (((_j)    & 180h) == 80h)
                          M       if (PREV_BANK == 0)
                          M         bsf     STATUS, RP0
                          M       endif
                          M       if (PREV_BANK == 2)
                          M         bsf     STATUS, RP0
                          M         bcf     STATUS, RP1
                          M       endif
                          M       if (PREV_BANK == 3)
                          M         bcf     STATUS, RP1
                          M       endif
                          M PREV_BANK = 1
                          M     endif
                          M 
                          M     if (((_j)    & 180h) == 100h)
                          M       if (PREV_BANK == 0)
                          M         bsf     STATUS, RP1
                          M       endif
                          M       if (PREV_BANK == 1)
MPASM  5.44                      KEYPAD~1.ASM   4-20-2020  12:51:35         PAGE 62


LOC  OBJECT CODE     LINE SOURCE TEXT
  VALUE

                          M         bcf     STATUS, RP0
                          M         bsf     STATUS, RP1
                          M       endif
                          M       if (PREV_BANK == 3)
                          M         bcf     STATUS, RP0
                          M       endif
                          M PREV_BANK = 2
                          M     endif
                          M 
                          M     if (((_j)    & 180h) == 180h)
                          M       if (PREV_BANK == 0)
                          M         bsf     STATUS, RP0
                          M         bsf     STATUS, RP1
                          M       endif
                          M       if (PREV_BANK == 1)
                          M         bsf     STATUS, RP1
                          M       endif
                          M       if (PREV_BANK == 2)
                          M         bsf     STATUS, RP0
                          M       endif
                          M PREV_BANK = 3
                          M     endif
014D   0839               M         movf    _j,  W
                          M         CHK?RP  EEADR
                          M     if (((EEADR) & 180h) == 0)
                          M       if (PREV_BANK == 1)
                          M         bcf     STATUS, RP0
                          M       endif
                          M       if (PREV_BANK == 2)
                          M         bcf     STATUS, RP1
                          M       endif
                          M       if (PREV_BANK == 3)
                          M         bcf     STATUS, RP0
                          M         bcf     STATUS, RP1
                          M       endif
                          M PREV_BANK = 0
                          M     endif
                          M 
                          M     if (((EEADR) & 180h) == 80h)
                          M       if (PREV_BANK == 0)
                          M         bsf     STATUS, RP0
                          M       endif
                          M       if (PREV_BANK == 2)
                          M         bsf     STATUS, RP0
                          M         bcf     STATUS, RP1
                          M       endif
                          M       if (PREV_BANK == 3)
                          M         bcf     STATUS, RP1
                          M       endif
                          M PREV_BANK = 1
                          M     endif
                          M 
                          M     if (((EEADR) & 180h) == 100h)
MPASM  5.44                      KEYPAD~1.ASM   4-20-2020  12:51:35         PAGE 63


LOC  OBJECT CODE     LINE SOURCE TEXT
  VALUE

                          M       if (PREV_BANK == 0)
014E   1703               M         bsf     STATUS, RP1
                          M       endif
                          M       if (PREV_BANK == 1)
                          M         bcf     STATUS, RP0
                          M         bsf     STATUS, RP1
                          M       endif
                          M       if (PREV_BANK == 3)
                          M         bcf     STATUS, RP0
                          M       endif
  00000002                M PREV_BANK = 2
                          M     endif
                          M 
                          M     if (((EEADR) & 180h) == 180h)
                          M       if (PREV_BANK == 0)
                          M         bsf     STATUS, RP0
                          M         bsf     STATUS, RP1
                          M       endif
                          M       if (PREV_BANK == 1)
                          M         bsf     STATUS, RP1
                          M       endif
                          M       if (PREV_BANK == 2)
                          M         bsf     STATUS, RP0
                          M       endif
                          M PREV_BANK = 3
                          M     endif
014F   008D               M         movwf   EEADR
                      00211         READ?B  _k
                          M         L?CALL  READ
                          M         RST?RP
                          M     if ((PREV_BANK & 1) != 0)
                          M         bcf     STATUS, RP0
                          M     endif
                          M     if ((PREV_BANK & 2) != 0)
0150   1303               M         bcf     STATUS, RP1
                          M     endif
  00000000                M PREV_BANK = 0
                          M 
                          M     ifdef USE_LINKER
                          M       if (CODE_SIZE > 2)
                          M         pagesel READ
                          M       endif
                          M     else
                          M       if ((READ)  < 1)
                          M         if (CODE_SIZE > 2)
                          M           if (((READ)  & 800h) == 0)
                          M         bcf     PCLATH, 3
                          M         else
                          M         bsf     PCLATH, 3
                          M         endif
                          M         endif
                          M         if (CODE_SIZE > 4)
                          M           if (((READ)  & 1000h) == 0)
MPASM  5.44                      KEYPAD~1.ASM   4-20-2020  12:51:35         PAGE 64


LOC  OBJECT CODE     LINE SOURCE TEXT
  VALUE

                          M         bcf     PCLATH, 4
                          M           else
                          M         bsf     PCLATH, 4
                          M           endif
                          M         endif
                          M       else
                          M         if ((READ)  > $)
                          M           if (CODE_SIZE > 2)
                          M             if (((READ)  & 800h) == 0)
                          M         bcf     PCLATH, 3
                          M             else
                          M         bsf     PCLATH, 3
                          M             endif
                          M           endif
                          M           if (CODE_SIZE > 4)
                          M             if (((READ)  & 1000h) == 0)
                          M         bcf     PCLATH, 4
                          M             else
                          M         bsf     PCLATH, 4
                          M             endif
                          M           endif
                          M         else
                          M           if (CODE_SIZE > 2)
                          M             if (((READ)  & 1800h) == 0)
0151   018A               M         clrf    PCLATH
                          M             else
                          M               if (((READ)  & 800h) == 0)
                          M         bcf     PCLATH, 3
                          M               else
                          M         bsf     PCLATH, 3
                          M               endif
                          M               if (CODE_SIZE > 4)
                          M                 if (((READ)  & 1000h) == 0)
                          M         bcf     PCLATH, 4
                          M                 else
                          M         bsf     PCLATH, 4
                          M                 endif   
                          M               endif
                          M             endif
                          M           endif
                          M         endif
                          M       endif
                          M     endif
                          M 
0152   209A               M         call    READ
                          M         MOVE?AB _k
                          M         CHK?RP  _k
                          M     if (((_k)    & 180h) == 0)
                          M       if (PREV_BANK == 1)
                          M         bcf     STATUS, RP0
                          M       endif
                          M       if (PREV_BANK == 2)
                          M         bcf     STATUS, RP1
MPASM  5.44                      KEYPAD~1.ASM   4-20-2020  12:51:35         PAGE 65


LOC  OBJECT CODE     LINE SOURCE TEXT
  VALUE

                          M       endif
                          M       if (PREV_BANK == 3)
                          M         bcf     STATUS, RP0
                          M         bcf     STATUS, RP1
                          M       endif
  00000000                M PREV_BANK = 0
                          M     endif
                          M 
                          M     if (((_k)    & 180h) == 80h)
                          M       if (PREV_BANK == 0)
                          M         bsf     STATUS, RP0
                          M       endif
                          M       if (PREV_BANK == 2)
                          M         bsf     STATUS, RP0
                          M         bcf     STATUS, RP1
                          M       endif
                          M       if (PREV_BANK == 3)
                          M         bcf     STATUS, RP1
                          M       endif
                          M PREV_BANK = 1
                          M     endif
                          M 
                          M     if (((_k)    & 180h) == 100h)
                          M       if (PREV_BANK == 0)
                          M         bsf     STATUS, RP1
                          M       endif
                          M       if (PREV_BANK == 1)
                          M         bcf     STATUS, RP0
                          M         bsf     STATUS, RP1
                          M       endif
                          M       if (PREV_BANK == 3)
                          M         bcf     STATUS, RP0
                          M       endif
                          M PREV_BANK = 2
                          M     endif
                          M 
                          M     if (((_k)    & 180h) == 180h)
                          M       if (PREV_BANK == 0)
                          M         bsf     STATUS, RP0
                          M         bsf     STATUS, RP1
                          M       endif
                          M       if (PREV_BANK == 1)
                          M         bsf     STATUS, RP1
                          M       endif
                          M       if (PREV_BANK == 2)
                          M         bsf     STATUS, RP0
                          M       endif
                          M PREV_BANK = 3
                          M     endif
0153   00BA               M         movwf   _k
                      00212 
                      00213 ; C:\PBP\KEYPAD~1.PBP           00039           hserout [dec k]
                      00214         HSEROUTCOUNT?C  000h
MPASM  5.44                      KEYPAD~1.ASM   4-20-2020  12:51:35         PAGE 66


LOC  OBJECT CODE     LINE SOURCE TEXT
  VALUE

                          M         MOVE?CB 000h, R4 + 1
                          M         CHK?RP  R4 + 1
                          M     if (((R4 + 1) & 180h) == 0)
                          M       if (PREV_BANK == 1)
                          M         bcf     STATUS, RP0
                          M       endif
                          M       if (PREV_BANK == 2)
                          M         bcf     STATUS, RP1
                          M       endif
                          M       if (PREV_BANK == 3)
                          M         bcf     STATUS, RP0
                          M         bcf     STATUS, RP1
                          M       endif
  00000000                M PREV_BANK = 0
                          M     endif
                          M 
                          M     if (((R4 + 1) & 180h) == 80h)
                          M       if (PREV_BANK == 0)
                          M         bsf     STATUS, RP0
                          M       endif
                          M       if (PREV_BANK == 2)
                          M         bsf     STATUS, RP0
                          M         bcf     STATUS, RP1
                          M       endif
                          M       if (PREV_BANK == 3)
                          M         bcf     STATUS, RP1
                          M       endif
                          M PREV_BANK = 1
                          M     endif
                          M 
                          M     if (((R4 + 1) & 180h) == 100h)
                          M       if (PREV_BANK == 0)
                          M         bsf     STATUS, RP1
                          M       endif
                          M       if (PREV_BANK == 1)
                          M         bcf     STATUS, RP0
                          M         bsf     STATUS, RP1
                          M       endif
                          M       if (PREV_BANK == 3)
                          M         bcf     STATUS, RP0
                          M       endif
                          M PREV_BANK = 2
                          M     endif
                          M 
                          M     if (((R4 + 1) & 180h) == 180h)
                          M       if (PREV_BANK == 0)
                          M         bsf     STATUS, RP0
                          M         bsf     STATUS, RP1
                          M       endif
                          M       if (PREV_BANK == 1)
                          M         bsf     STATUS, RP1
                          M       endif
                          M       if (PREV_BANK == 2)
MPASM  5.44                      KEYPAD~1.ASM   4-20-2020  12:51:35         PAGE 67


LOC  OBJECT CODE     LINE SOURCE TEXT
  VALUE

                          M         bsf     STATUS, RP0
                          M       endif
                          M PREV_BANK = 3
                          M     endif
                          M     if (low (000h) == 0)
0154   01A9               M         clrf    R4 + 1
                          M     else
                          M         movlw   low (000h)
                          M         movwf   R4 + 1
                          M     endif
                      00215         HSEROUTNUM?B    _k
                          M         MOVE?BW _k,  R2
                          M         MOVE?BB _k,  R2
                          M         CHK?RP  _k
                          M     if (((_k)    & 180h) == 0)
                          M       if (PREV_BANK == 1)
                          M         bcf     STATUS, RP0
                          M       endif
                          M       if (PREV_BANK == 2)
                          M         bcf     STATUS, RP1
                          M       endif
                          M       if (PREV_BANK == 3)
                          M         bcf     STATUS, RP0
                          M         bcf     STATUS, RP1
                          M       endif
  00000000                M PREV_BANK = 0
                          M     endif
                          M 
                          M     if (((_k)    & 180h) == 80h)
                          M       if (PREV_BANK == 0)
                          M         bsf     STATUS, RP0
                          M       endif
                          M       if (PREV_BANK == 2)
                          M         bsf     STATUS, RP0
                          M         bcf     STATUS, RP1
                          M       endif
                          M       if (PREV_BANK == 3)
                          M         bcf     STATUS, RP1
                          M       endif
                          M PREV_BANK = 1
                          M     endif
                          M 
                          M     if (((_k)    & 180h) == 100h)
                          M       if (PREV_BANK == 0)
                          M         bsf     STATUS, RP1
                          M       endif
                          M       if (PREV_BANK == 1)
                          M         bcf     STATUS, RP0
                          M         bsf     STATUS, RP1
                          M       endif
                          M       if (PREV_BANK == 3)
                          M         bcf     STATUS, RP0
                          M       endif
MPASM  5.44                      KEYPAD~1.ASM   4-20-2020  12:51:35         PAGE 68


LOC  OBJECT CODE     LINE SOURCE TEXT
  VALUE

                          M PREV_BANK = 2
                          M     endif
                          M 
                          M     if (((_k)    & 180h) == 180h)
                          M       if (PREV_BANK == 0)
                          M         bsf     STATUS, RP0
                          M         bsf     STATUS, RP1
                          M       endif
                          M       if (PREV_BANK == 1)
                          M         bsf     STATUS, RP1
                          M       endif
                          M       if (PREV_BANK == 2)
                          M         bsf     STATUS, RP0
                          M       endif
                          M PREV_BANK = 3
                          M     endif
0155   083A               M         movf    _k,  W
                          M         CHK?RP  R2
                          M     if (((R2)    & 180h) == 0)
                          M       if (PREV_BANK == 1)
                          M         bcf     STATUS, RP0
                          M       endif
                          M       if (PREV_BANK == 2)
                          M         bcf     STATUS, RP1
                          M       endif
                          M       if (PREV_BANK == 3)
                          M         bcf     STATUS, RP0
                          M         bcf     STATUS, RP1
                          M       endif
  00000000                M PREV_BANK = 0
                          M     endif
                          M 
                          M     if (((R2)    & 180h) == 80h)
                          M       if (PREV_BANK == 0)
                          M         bsf     STATUS, RP0
                          M       endif
                          M       if (PREV_BANK == 2)
                          M         bsf     STATUS, RP0
                          M         bcf     STATUS, RP1
                          M       endif
                          M       if (PREV_BANK == 3)
                          M         bcf     STATUS, RP1
                          M       endif
                          M PREV_BANK = 1
                          M     endif
                          M 
                          M     if (((R2)    & 180h) == 100h)
                          M       if (PREV_BANK == 0)
                          M         bsf     STATUS, RP1
                          M       endif
                          M       if (PREV_BANK == 1)
                          M         bcf     STATUS, RP0
                          M         bsf     STATUS, RP1
MPASM  5.44                      KEYPAD~1.ASM   4-20-2020  12:51:35         PAGE 69


LOC  OBJECT CODE     LINE SOURCE TEXT
  VALUE

                          M       endif
                          M       if (PREV_BANK == 3)
                          M         bcf     STATUS, RP0
                          M       endif
                          M PREV_BANK = 2
                          M     endif
                          M 
                          M     if (((R2)    & 180h) == 180h)
                          M       if (PREV_BANK == 0)
                          M         bsf     STATUS, RP0
                          M         bsf     STATUS, RP1
                          M       endif
                          M       if (PREV_BANK == 1)
                          M         bsf     STATUS, RP1
                          M       endif
                          M       if (PREV_BANK == 2)
                          M         bsf     STATUS, RP0
                          M       endif
                          M PREV_BANK = 3
                          M     endif
0156   00A4               M         movwf   R2
                          M         CHK?RP  R2
                          M     if (((R2)    & 180h) == 0)
                          M       if (PREV_BANK == 1)
                          M         bcf     STATUS, RP0
                          M       endif
                          M       if (PREV_BANK == 2)
                          M         bcf     STATUS, RP1
                          M       endif
                          M       if (PREV_BANK == 3)
                          M         bcf     STATUS, RP0
                          M         bcf     STATUS, RP1
                          M       endif
  00000000                M PREV_BANK = 0
                          M     endif
                          M 
                          M     if (((R2)    & 180h) == 80h)
                          M       if (PREV_BANK == 0)
                          M         bsf     STATUS, RP0
                          M       endif
                          M       if (PREV_BANK == 2)
                          M         bsf     STATUS, RP0
                          M         bcf     STATUS, RP1
                          M       endif
                          M       if (PREV_BANK == 3)
                          M         bcf     STATUS, RP1
                          M       endif
                          M PREV_BANK = 1
                          M     endif
                          M 
                          M     if (((R2)    & 180h) == 100h)
                          M       if (PREV_BANK == 0)
                          M         bsf     STATUS, RP1
MPASM  5.44                      KEYPAD~1.ASM   4-20-2020  12:51:35         PAGE 70


LOC  OBJECT CODE     LINE SOURCE TEXT
  VALUE

                          M       endif
                          M       if (PREV_BANK == 1)
                          M         bcf     STATUS, RP0
                          M         bsf     STATUS, RP1
                          M       endif
                          M       if (PREV_BANK == 3)
                          M         bcf     STATUS, RP0
                          M       endif
                          M PREV_BANK = 2
                          M     endif
                          M 
                          M     if (((R2)    & 180h) == 180h)
                          M       if (PREV_BANK == 0)
                          M         bsf     STATUS, RP0
                          M         bsf     STATUS, RP1
                          M       endif
                          M       if (PREV_BANK == 1)
                          M         bsf     STATUS, RP1
                          M       endif
                          M       if (PREV_BANK == 2)
                          M         bsf     STATUS, RP0
                          M       endif
                          M PREV_BANK = 3
                          M     endif
0157   01A5               M         clrf    (R2)   + 1
                      00216         HSEROUTDEC?     
                          M         MOVE?CW HSEROUTJ, R8
                          M     ifdef USE_LINKER
                          M         CHK?RP  R8
                          M         movlw   low (HSEROUTJ)
                          M         movwf   R8
                          M         movlw   high (HSEROUTJ)
                          M         movwf   (R8)   + 1
                          M     else
                          M         MOVE?CB low (HSEROUTJ), R8
                          M         CHK?RP  R8
                          M     if (((R8)    & 180h) == 0)
                          M       if (PREV_BANK == 1)
                          M         bcf     STATUS, RP0
                          M       endif
                          M       if (PREV_BANK == 2)
                          M         bcf     STATUS, RP1
                          M       endif
                          M       if (PREV_BANK == 3)
                          M         bcf     STATUS, RP0
                          M         bcf     STATUS, RP1
                          M       endif
  00000000                M PREV_BANK = 0
                          M     endif
                          M 
                          M     if (((R8)    & 180h) == 80h)
                          M       if (PREV_BANK == 0)
                          M         bsf     STATUS, RP0
MPASM  5.44                      KEYPAD~1.ASM   4-20-2020  12:51:35         PAGE 71


LOC  OBJECT CODE     LINE SOURCE TEXT
  VALUE

                          M       endif
                          M       if (PREV_BANK == 2)
                          M         bsf     STATUS, RP0
                          M         bcf     STATUS, RP1
                          M       endif
                          M       if (PREV_BANK == 3)
                          M         bcf     STATUS, RP1
                          M       endif
                          M PREV_BANK = 1
                          M     endif
                          M 
                          M     if (((R8)    & 180h) == 100h)
                          M       if (PREV_BANK == 0)
                          M         bsf     STATUS, RP1
                          M       endif
                          M       if (PREV_BANK == 1)
                          M         bcf     STATUS, RP0
                          M         bsf     STATUS, RP1
                          M       endif
                          M       if (PREV_BANK == 3)
                          M         bcf     STATUS, RP0
                          M       endif
                          M PREV_BANK = 2
                          M     endif
                          M 
                          M     if (((R8)    & 180h) == 180h)
                          M       if (PREV_BANK == 0)
                          M         bsf     STATUS, RP0
                          M         bsf     STATUS, RP1
                          M       endif
                          M       if (PREV_BANK == 1)
                          M         bsf     STATUS, RP1
                          M       endif
                          M       if (PREV_BANK == 2)
                          M         bsf     STATUS, RP0
                          M       endif
                          M PREV_BANK = 3
                          M     endif
                          M     if (low (low (HSEROUTJ)) == 0)
                          M         clrf    R8
                          M     else
0158   3002               M         movlw   low (low (HSEROUTJ))
0159   00B0               M         movwf   R8
                          M     endif
                          M         MOVE?CB high (HSEROUTJ), (R8) + 1
                          M         CHK?RP  (R8) + 1
                          M     if ((((R8) + 1) & 180h) == 0)
                          M       if (PREV_BANK == 1)
                          M         bcf     STATUS, RP0
                          M       endif
                          M       if (PREV_BANK == 2)
                          M         bcf     STATUS, RP1
                          M       endif
MPASM  5.44                      KEYPAD~1.ASM   4-20-2020  12:51:35         PAGE 72


LOC  OBJECT CODE     LINE SOURCE TEXT
  VALUE

                          M       if (PREV_BANK == 3)
                          M         bcf     STATUS, RP0
                          M         bcf     STATUS, RP1
                          M       endif
  00000000                M PREV_BANK = 0
                          M     endif
                          M 
                          M     if ((((R8) + 1) & 180h) == 80h)
                          M       if (PREV_BANK == 0)
                          M         bsf     STATUS, RP0
                          M       endif
                          M       if (PREV_BANK == 2)
                          M         bsf     STATUS, RP0
                          M         bcf     STATUS, RP1
                          M       endif
                          M       if (PREV_BANK == 3)
                          M         bcf     STATUS, RP1
                          M       endif
                          M PREV_BANK = 1
                          M     endif
                          M 
                          M     if ((((R8) + 1) & 180h) == 100h)
                          M       if (PREV_BANK == 0)
                          M         bsf     STATUS, RP1
                          M       endif
                          M       if (PREV_BANK == 1)
                          M         bcf     STATUS, RP0
                          M         bsf     STATUS, RP1
                          M       endif
                          M       if (PREV_BANK == 3)
                          M         bcf     STATUS, RP0
                          M       endif
                          M PREV_BANK = 2
                          M     endif
                          M 
                          M     if ((((R8) + 1) & 180h) == 180h)
                          M       if (PREV_BANK == 0)
                          M         bsf     STATUS, RP0
                          M         bsf     STATUS, RP1
                          M       endif
                          M       if (PREV_BANK == 1)
                          M         bsf     STATUS, RP1
                          M       endif
                          M       if (PREV_BANK == 2)
                          M         bsf     STATUS, RP0
                          M       endif
                          M PREV_BANK = 3
                          M     endif
                          M     if (low (high (HSEROUTJ)) == 0)
015A   01B1               M         clrf    (R8) + 1
                          M     else
                          M         movlw   low (high (HSEROUTJ))
                          M         movwf   (R8) + 1
MPASM  5.44                      KEYPAD~1.ASM   4-20-2020  12:51:35         PAGE 73


LOC  OBJECT CODE     LINE SOURCE TEXT
  VALUE

                          M     endif
                          M     endif
                          M         L?CALL  SEROUT2DEC
                          M         RST?RP
                          M     if ((PREV_BANK & 1) != 0)
                          M         bcf     STATUS, RP0
                          M     endif
                          M     if ((PREV_BANK & 2) != 0)
                          M         bcf     STATUS, RP1
                          M     endif
  00000000                M PREV_BANK = 0
                          M 
                          M     ifdef USE_LINKER
                          M       if (CODE_SIZE > 2)
                          M         pagesel SEROUT2DEC
                          M       endif
                          M     else
                          M       if ((SEROUT2DEC) < 1)
                          M         if (CODE_SIZE > 2)
                          M           if (((SEROUT2DEC) & 800h) == 0)
                          M         bcf     PCLATH, 3
                          M         else
                          M         bsf     PCLATH, 3
                          M         endif
                          M         endif
                          M         if (CODE_SIZE > 4)
                          M           if (((SEROUT2DEC) & 1000h) == 0)
                          M         bcf     PCLATH, 4
                          M           else
                          M         bsf     PCLATH, 4
                          M           endif
                          M         endif
                          M       else
                          M         if ((SEROUT2DEC) > $)
                          M           if (CODE_SIZE > 2)
                          M             if (((SEROUT2DEC) & 800h) == 0)
                          M         bcf     PCLATH, 3
                          M             else
                          M         bsf     PCLATH, 3
                          M             endif
                          M           endif
                          M           if (CODE_SIZE > 4)
                          M             if (((SEROUT2DEC) & 1000h) == 0)
                          M         bcf     PCLATH, 4
                          M             else
                          M         bsf     PCLATH, 4
                          M             endif
                          M           endif
                          M         else
                          M           if (CODE_SIZE > 2)
                          M             if (((SEROUT2DEC) & 1800h) == 0)
015B   018A               M         clrf    PCLATH
                          M             else
MPASM  5.44                      KEYPAD~1.ASM   4-20-2020  12:51:35         PAGE 74


LOC  OBJECT CODE     LINE SOURCE TEXT
  VALUE

                          M               if (((SEROUT2DEC) & 800h) == 0)
                          M         bcf     PCLATH, 3
                          M               else
                          M         bsf     PCLATH, 3
                          M               endif
                          M               if (CODE_SIZE > 4)
                          M                 if (((SEROUT2DEC) & 1000h) == 0)
                          M         bcf     PCLATH, 4
                          M                 else
                          M         bsf     PCLATH, 4
                          M                 endif   
                          M               endif
                          M             endif
                          M           endif
                          M         endif
                          M       endif
                          M     endif
                          M 
015C   206C               M         call    SEROUT2DEC
                      00217 
                      00218 ; C:\PBP\KEYPAD~1.PBP           00040           pause 100
                      00219         PAUSE?C 064h
                          M     if (((064h) >> 8) == 0)
                          M         MOVE?CA 064h
015D   3064               M         movlw   low (064h)
                          M         L?CALL  PAUSE
                          M         RST?RP
                          M     if ((PREV_BANK & 1) != 0)
                          M         bcf     STATUS, RP0
                          M     endif
                          M     if ((PREV_BANK & 2) != 0)
                          M         bcf     STATUS, RP1
                          M     endif
  00000000                M PREV_BANK = 0
                          M 
                          M     ifdef USE_LINKER
                          M       if (CODE_SIZE > 2)
                          M         pagesel PAUSE
                          M       endif
                          M     else
                          M       if ((PAUSE) < 1)
                          M         if (CODE_SIZE > 2)
                          M           if (((PAUSE) & 800h) == 0)
                          M         bcf     PCLATH, 3
                          M         else
                          M         bsf     PCLATH, 3
                          M         endif
                          M         endif
                          M         if (CODE_SIZE > 4)
                          M           if (((PAUSE) & 1000h) == 0)
                          M         bcf     PCLATH, 4
                          M           else
                          M         bsf     PCLATH, 4
MPASM  5.44                      KEYPAD~1.ASM   4-20-2020  12:51:35         PAGE 75


LOC  OBJECT CODE     LINE SOURCE TEXT
  VALUE

                          M           endif
                          M         endif
                          M       else
                          M         if ((PAUSE) > $)
                          M           if (CODE_SIZE > 2)
                          M             if (((PAUSE) & 800h) == 0)
                          M         bcf     PCLATH, 3
                          M             else
                          M         bsf     PCLATH, 3
                          M             endif
                          M           endif
                          M           if (CODE_SIZE > 4)
                          M             if (((PAUSE) & 1000h) == 0)
                          M         bcf     PCLATH, 4
                          M             else
                          M         bsf     PCLATH, 4
                          M             endif
                          M           endif
                          M         else
                          M           if (CODE_SIZE > 2)
                          M             if (((PAUSE) & 1800h) == 0)
015E   018A               M         clrf    PCLATH
                          M             else
                          M               if (((PAUSE) & 800h) == 0)
                          M         bcf     PCLATH, 3
                          M               else
                          M         bsf     PCLATH, 3
                          M               endif
                          M               if (CODE_SIZE > 4)
                          M                 if (((PAUSE) & 1000h) == 0)
                          M         bcf     PCLATH, 4
                          M                 else
                          M         bsf     PCLATH, 4
                          M                 endif   
                          M               endif
                          M             endif
                          M           endif
                          M         endif
                          M       endif
                          M     endif
                          M 
015F   20B4               M         call    PAUSE
                          M     else
                          M         MOVE?CB (064h) >> 8, R1 + 1
                          M         MOVE?CA low (064h)
                          M         L?CALL  PAUSEL
                          M     endif
                      00220 
                      00221 ; C:\PBP\KEYPAD~1.PBP           00041       next j
                      00222         NEXT?BCL        _j, 001h, L00003
                          M     if ((001h) == 1)
                          M         CHK?RP  _j
                          M     if (((_j)    & 180h) == 0)
MPASM  5.44                      KEYPAD~1.ASM   4-20-2020  12:51:35         PAGE 76


LOC  OBJECT CODE     LINE SOURCE TEXT
  VALUE

                          M       if (PREV_BANK == 1)
                          M         bcf     STATUS, RP0
                          M       endif
                          M       if (PREV_BANK == 2)
                          M         bcf     STATUS, RP1
                          M       endif
                          M       if (PREV_BANK == 3)
                          M         bcf     STATUS, RP0
                          M         bcf     STATUS, RP1
                          M       endif
  00000000                M PREV_BANK = 0
                          M     endif
                          M 
                          M     if (((_j)    & 180h) == 80h)
                          M       if (PREV_BANK == 0)
                          M         bsf     STATUS, RP0
                          M       endif
                          M       if (PREV_BANK == 2)
                          M         bsf     STATUS, RP0
                          M         bcf     STATUS, RP1
                          M       endif
                          M       if (PREV_BANK == 3)
                          M         bcf     STATUS, RP1
                          M       endif
                          M PREV_BANK = 1
                          M     endif
                          M 
                          M     if (((_j)    & 180h) == 100h)
                          M       if (PREV_BANK == 0)
                          M         bsf     STATUS, RP1
                          M       endif
                          M       if (PREV_BANK == 1)
                          M         bcf     STATUS, RP0
                          M         bsf     STATUS, RP1
                          M       endif
                          M       if (PREV_BANK == 3)
                          M         bcf     STATUS, RP0
                          M       endif
                          M PREV_BANK = 2
                          M     endif
                          M 
                          M     if (((_j)    & 180h) == 180h)
                          M       if (PREV_BANK == 0)
                          M         bsf     STATUS, RP0
                          M         bsf     STATUS, RP1
                          M       endif
                          M       if (PREV_BANK == 1)
                          M         bsf     STATUS, RP1
                          M       endif
                          M       if (PREV_BANK == 2)
                          M         bsf     STATUS, RP0
                          M       endif
                          M PREV_BANK = 3
MPASM  5.44                      KEYPAD~1.ASM   4-20-2020  12:51:35         PAGE 77


LOC  OBJECT CODE     LINE SOURCE TEXT
  VALUE

                          M     endif
                          M       if ((PREV_BANK == 0) & (CODE_SIZE <= 2))
                          M         incfsz  _j,  F
                          M         goto    L00003
                          M       else
0160   0AB9               M         incf    _j,  F
                          M         BIT?GOTO 0, STATUS, Z, L00003
                          M     ifdef USE_LINKER
                          M         CLRWDT?
                          M     else
                          M       if ($ == (L00003))
                          M         CLRWDT?
                          M       endif
                          M     endif
                          M 
                          M     ifdef USE_LINKER
                          M       if (CODE_SIZE > 2)
                          M         pagesel L00003
                          M       endif
                          M     else
                          M       if (CODE_SIZE > 2)
                          M         if (((L00003) & 800h) == 0)
0161   118A               M         bcf     PCLATH, 3
                          M         else
                          M         bsf     PCLATH, 3
                          M         endif
                          M       endif
                          M       if (CODE_SIZE > 4)
                          M         if (((L00003) & 1000h) == 0)
0162   120A               M         bcf     PCLATH, 4
                          M         else
                          M         bsf     PCLATH, 4
                          M         endif
                          M       endif
                          M     endif
                          M 
                          M     if (((STATUS) & 0ff80h) != 0)
                          M         CHK?RP  STATUS
                          M         bcf     STATUS, DC
                          M       if ((0)      == 0)
                          M         btfss   STATUS, Z
                          M       else
                          M         btfsc   STATUS, Z
                          M       endif
                          M         bsf     STATUS, DC
                          M         RST?RP
                          M         btfsc   STATUS, DC
                          M     else
                          M         RST?RP
                          M     if ((PREV_BANK & 1) != 0)
                          M         bcf     STATUS, RP0
                          M     endif
                          M     if ((PREV_BANK & 2) != 0)
MPASM  5.44                      KEYPAD~1.ASM   4-20-2020  12:51:35         PAGE 78


LOC  OBJECT CODE     LINE SOURCE TEXT
  VALUE

                          M         bcf     STATUS, RP1
                          M     endif
  00000000                M PREV_BANK = 0
                          M       if ((0)      == 0)
0163   1D03               M         btfss   STATUS, Z
                          M       else
                          M         btfsc   STATUS, Z
                          M       endif
                          M     endif
                          M 
0164   2946               M         goto    L00003
                          M       endif
                          M     else
                          M         movlw   001h
                          M         CHK?RP  _j
                          M         addwf   _j,  F
                          M       if ((001h) <= 255)
                          M         BIT?GOTO 0, STATUS, C, L00003
                          M       endif
                          M     endif
                      00223         LABEL?L L00004  
                          M         RST?RP
                          M     if ((PREV_BANK & 1) != 0)
                          M         bcf     STATUS, RP0
                          M     endif
                          M     if ((PREV_BANK & 2) != 0)
                          M         bcf     STATUS, RP1
                          M     endif
  00000000                M PREV_BANK = 0
                          M     ifdef PM_USED
                          M         LALL
                          M L00004
                          M         XALL
                          M     else
0165                      M L00004
                          M     endif
                      00224 
                      00225 ; C:\PBP\KEYPAD~1.PBP           00042       hserout[13,10]
                      00226         HSEROUT?C       00Dh
0165   300D               M         movlw   00Dh
                          M         L?CALL  HSEROUT
                          M         RST?RP
                          M     if ((PREV_BANK & 1) != 0)
                          M         bcf     STATUS, RP0
                          M     endif
                          M     if ((PREV_BANK & 2) != 0)
                          M         bcf     STATUS, RP1
                          M     endif
  00000000                M PREV_BANK = 0
                          M 
                          M     ifdef USE_LINKER
                          M       if (CODE_SIZE > 2)
                          M         pagesel HSEROUT
MPASM  5.44                      KEYPAD~1.ASM   4-20-2020  12:51:35         PAGE 79


LOC  OBJECT CODE     LINE SOURCE TEXT
  VALUE

                          M       endif
                          M     else
                          M       if ((HSEROUT) < 1)
                          M         if (CODE_SIZE > 2)
                          M           if (((HSEROUT) & 800h) == 0)
                          M         bcf     PCLATH, 3
                          M         else
                          M         bsf     PCLATH, 3
                          M         endif
                          M         endif
                          M         if (CODE_SIZE > 4)
                          M           if (((HSEROUT) & 1000h) == 0)
                          M         bcf     PCLATH, 4
                          M           else
                          M         bsf     PCLATH, 4
                          M           endif
                          M         endif
                          M       else
                          M         if ((HSEROUT) > $)
                          M           if (CODE_SIZE > 2)
                          M             if (((HSEROUT) & 800h) == 0)
                          M         bcf     PCLATH, 3
                          M             else
                          M         bsf     PCLATH, 3
                          M             endif
                          M           endif
                          M           if (CODE_SIZE > 4)
                          M             if (((HSEROUT) & 1000h) == 0)
                          M         bcf     PCLATH, 4
                          M             else
                          M         bsf     PCLATH, 4
                          M             endif
                          M           endif
                          M         else
                          M           if (CODE_SIZE > 2)
                          M             if (((HSEROUT) & 1800h) == 0)
0166   018A               M         clrf    PCLATH
                          M             else
                          M               if (((HSEROUT) & 800h) == 0)
                          M         bcf     PCLATH, 3
                          M               else
                          M         bsf     PCLATH, 3
                          M               endif
                          M               if (CODE_SIZE > 4)
                          M                 if (((HSEROUT) & 1000h) == 0)
                          M         bcf     PCLATH, 4
                          M                 else
                          M         bsf     PCLATH, 4
                          M                 endif   
                          M               endif
                          M             endif
                          M           endif
                          M         endif
MPASM  5.44                      KEYPAD~1.ASM   4-20-2020  12:51:35         PAGE 80


LOC  OBJECT CODE     LINE SOURCE TEXT
  VALUE

                          M       endif
                          M     endif
                          M 
0167   2003               M         call    HSEROUT
                      00227         HSEROUT?C       00Ah
0168   300A               M         movlw   00Ah
                          M         L?CALL  HSEROUT
                          M         RST?RP
                          M     if ((PREV_BANK & 1) != 0)
                          M         bcf     STATUS, RP0
                          M     endif
                          M     if ((PREV_BANK & 2) != 0)
                          M         bcf     STATUS, RP1
                          M     endif
  00000000                M PREV_BANK = 0
                          M 
                          M     ifdef USE_LINKER
                          M       if (CODE_SIZE > 2)
                          M         pagesel HSEROUT
                          M       endif
                          M     else
                          M       if ((HSEROUT) < 1)
                          M         if (CODE_SIZE > 2)
                          M           if (((HSEROUT) & 800h) == 0)
                          M         bcf     PCLATH, 3
                          M         else
                          M         bsf     PCLATH, 3
                          M         endif
                          M         endif
                          M         if (CODE_SIZE > 4)
                          M           if (((HSEROUT) & 1000h) == 0)
                          M         bcf     PCLATH, 4
                          M           else
                          M         bsf     PCLATH, 4
                          M           endif
                          M         endif
                          M       else
                          M         if ((HSEROUT) > $)
                          M           if (CODE_SIZE > 2)
                          M             if (((HSEROUT) & 800h) == 0)
                          M         bcf     PCLATH, 3
                          M             else
                          M         bsf     PCLATH, 3
                          M             endif
                          M           endif
                          M           if (CODE_SIZE > 4)
                          M             if (((HSEROUT) & 1000h) == 0)
                          M         bcf     PCLATH, 4
                          M             else
                          M         bsf     PCLATH, 4
                          M             endif
                          M           endif
                          M         else
MPASM  5.44                      KEYPAD~1.ASM   4-20-2020  12:51:35         PAGE 81


LOC  OBJECT CODE     LINE SOURCE TEXT
  VALUE

                          M           if (CODE_SIZE > 2)
                          M             if (((HSEROUT) & 1800h) == 0)
0169   018A               M         clrf    PCLATH
                          M             else
                          M               if (((HSEROUT) & 800h) == 0)
                          M         bcf     PCLATH, 3
                          M               else
                          M         bsf     PCLATH, 3
                          M               endif
                          M               if (CODE_SIZE > 4)
                          M                 if (((HSEROUT) & 1000h) == 0)
                          M         bcf     PCLATH, 4
                          M                 else
                          M         bsf     PCLATH, 4
                          M                 endif   
                          M               endif
                          M             endif
                          M           endif
                          M         endif
                          M       endif
                          M     endif
                          M 
016A   2003               M         call    HSEROUT
                      00228 
                      00229 ; C:\PBP\KEYPAD~1.PBP           00043   return
                      00230         RETURN? 
                          M     ifdef DEBUG_STACK
                          M         CHK?RP  DEBUG_STACK
                          M         decf    DEBUG_STACK, F
                          M     endif
                          M         RST?RP
                          M     if ((PREV_BANK & 1) != 0)
                          M         bcf     STATUS, RP0
                          M     endif
                          M     if ((PREV_BANK & 2) != 0)
                          M         bcf     STATUS, RP1
                          M     endif
  00000000                M PREV_BANK = 0
016B   0008               M         return
                      00231 
                      00232 ; C:\PBP\KEYPAD~1.PBP           00044   phone:
                      00233 
                      00234         LABEL?L _phone  
                          M         RST?RP
                          M     if ((PREV_BANK & 1) != 0)
                          M         bcf     STATUS, RP0
                          M     endif
                          M     if ((PREV_BANK & 2) != 0)
                          M         bcf     STATUS, RP1
                          M     endif
  00000000                M PREV_BANK = 0
                          M     ifdef PM_USED
                          M         LALL
MPASM  5.44                      KEYPAD~1.ASM   4-20-2020  12:51:35         PAGE 82


LOC  OBJECT CODE     LINE SOURCE TEXT
  VALUE

                          M _phone
                          M         XALL
                          M     else
016C                      M _phone
                          M     endif
                      00235 
                      00236 ; C:\PBP\KEYPAD~1.PBP           00045          trisb = %11111000
                      00237         MOVE?CB 0F8h, TRISB
                          M         CHK?RP  TRISB
                          M     if (((TRISB) & 180h) == 0)
                          M       if (PREV_BANK == 1)
                          M         bcf     STATUS, RP0
                          M       endif
                          M       if (PREV_BANK == 2)
                          M         bcf     STATUS, RP1
                          M       endif
                          M       if (PREV_BANK == 3)
                          M         bcf     STATUS, RP0
                          M         bcf     STATUS, RP1
                          M       endif
                          M PREV_BANK = 0
                          M     endif
                          M 
                          M     if (((TRISB) & 180h) == 80h)
                          M       if (PREV_BANK == 0)
016C   1683               M         bsf     STATUS, RP0
                          M       endif
                          M       if (PREV_BANK == 2)
                          M         bsf     STATUS, RP0
                          M         bcf     STATUS, RP1
                          M       endif
                          M       if (PREV_BANK == 3)
                          M         bcf     STATUS, RP1
                          M       endif
  00000001                M PREV_BANK = 1
                          M     endif
                          M 
                          M     if (((TRISB) & 180h) == 100h)
                          M       if (PREV_BANK == 0)
                          M         bsf     STATUS, RP1
                          M       endif
                          M       if (PREV_BANK == 1)
                          M         bcf     STATUS, RP0
                          M         bsf     STATUS, RP1
                          M       endif
                          M       if (PREV_BANK == 3)
                          M         bcf     STATUS, RP0
                          M       endif
                          M PREV_BANK = 2
                          M     endif
                          M 
                          M     if (((TRISB) & 180h) == 180h)
                          M       if (PREV_BANK == 0)
MPASM  5.44                      KEYPAD~1.ASM   4-20-2020  12:51:35         PAGE 83


LOC  OBJECT CODE     LINE SOURCE TEXT
  VALUE

                          M         bsf     STATUS, RP0
                          M         bsf     STATUS, RP1
                          M       endif
                          M       if (PREV_BANK == 1)
                          M         bsf     STATUS, RP1
                          M       endif
                          M       if (PREV_BANK == 2)
                          M         bsf     STATUS, RP0
                          M       endif
                          M PREV_BANK = 3
                          M     endif
                          M     if (low (0F8h) == 0)
                          M         clrf    TRISB
                          M     else
016D   30F8               M         movlw   low (0F8h)
016E   0086               M         movwf   TRISB
                          M     endif
                      00238 
                      00239 ; C:\PBP\KEYPAD~1.PBP           00046          portb.0=1:portb.1=0:portb.2=0
                      00240         MOVE?CT 001h, _PORTB??0
                          M         CHK?RP  PORTB
                          M     if (((PORTB) & 180h) == 0)
                          M       if (PREV_BANK == 1)
016F   1283               M         bcf     STATUS, RP0
                          M       endif
                          M       if (PREV_BANK == 2)
                          M         bcf     STATUS, RP1
                          M       endif
                          M       if (PREV_BANK == 3)
                          M         bcf     STATUS, RP0
                          M         bcf     STATUS, RP1
                          M       endif
  00000000                M PREV_BANK = 0
                          M     endif
                          M 
                          M     if (((PORTB) & 180h) == 80h)
                          M       if (PREV_BANK == 0)
                          M         bsf     STATUS, RP0
                          M       endif
                          M       if (PREV_BANK == 2)
                          M         bsf     STATUS, RP0
                          M         bcf     STATUS, RP1
                          M       endif
                          M       if (PREV_BANK == 3)
                          M         bcf     STATUS, RP1
                          M       endif
                          M PREV_BANK = 1
                          M     endif
                          M 
                          M     if (((PORTB) & 180h) == 100h)
                          M       if (PREV_BANK == 0)
                          M         bsf     STATUS, RP1
                          M       endif
MPASM  5.44                      KEYPAD~1.ASM   4-20-2020  12:51:35         PAGE 84


LOC  OBJECT CODE     LINE SOURCE TEXT
  VALUE

                          M       if (PREV_BANK == 1)
                          M         bcf     STATUS, RP0
                          M         bsf     STATUS, RP1
                          M       endif
                          M       if (PREV_BANK == 3)
                          M         bcf     STATUS, RP0
                          M       endif
                          M PREV_BANK = 2
                          M     endif
                          M 
                          M     if (((PORTB) & 180h) == 180h)
                          M       if (PREV_BANK == 0)
                          M         bsf     STATUS, RP0
                          M         bsf     STATUS, RP1
                          M       endif
                          M       if (PREV_BANK == 1)
                          M         bsf     STATUS, RP1
                          M       endif
                          M       if (PREV_BANK == 2)
                          M         bsf     STATUS, RP0
                          M       endif
                          M PREV_BANK = 3
                          M     endif
                          M     if (((001h) & 1) == 1)
0170   1406               M         bsf     PORTB,  000h
                          M     else
                          M         bcf     PORTB,  000h
                          M     endif
                      00241 
                      00242 ; C:\PBP\KEYPAD~1.PBP           00046          portb.0=1:portb.1=0:portb.2=0
                      00243         MOVE?CT 000h, _PORTB??1
                          M         CHK?RP  PORTB
                          M     if (((PORTB) & 180h) == 0)
                          M       if (PREV_BANK == 1)
                          M         bcf     STATUS, RP0
                          M       endif
                          M       if (PREV_BANK == 2)
                          M         bcf     STATUS, RP1
                          M       endif
                          M       if (PREV_BANK == 3)
                          M         bcf     STATUS, RP0
                          M         bcf     STATUS, RP1
                          M       endif
  00000000                M PREV_BANK = 0
                          M     endif
                          M 
                          M     if (((PORTB) & 180h) == 80h)
                          M       if (PREV_BANK == 0)
                          M         bsf     STATUS, RP0
                          M       endif
                          M       if (PREV_BANK == 2)
                          M         bsf     STATUS, RP0
                          M         bcf     STATUS, RP1
MPASM  5.44                      KEYPAD~1.ASM   4-20-2020  12:51:35         PAGE 85


LOC  OBJECT CODE     LINE SOURCE TEXT
  VALUE

                          M       endif
                          M       if (PREV_BANK == 3)
                          M         bcf     STATUS, RP1
                          M       endif
                          M PREV_BANK = 1
                          M     endif
                          M 
                          M     if (((PORTB) & 180h) == 100h)
                          M       if (PREV_BANK == 0)
                          M         bsf     STATUS, RP1
                          M       endif
                          M       if (PREV_BANK == 1)
                          M         bcf     STATUS, RP0
                          M         bsf     STATUS, RP1
                          M       endif
                          M       if (PREV_BANK == 3)
                          M         bcf     STATUS, RP0
                          M       endif
                          M PREV_BANK = 2
                          M     endif
                          M 
                          M     if (((PORTB) & 180h) == 180h)
                          M       if (PREV_BANK == 0)
                          M         bsf     STATUS, RP0
                          M         bsf     STATUS, RP1
                          M       endif
                          M       if (PREV_BANK == 1)
                          M         bsf     STATUS, RP1
                          M       endif
                          M       if (PREV_BANK == 2)
                          M         bsf     STATUS, RP0
                          M       endif
                          M PREV_BANK = 3
                          M     endif
                          M     if (((000h) & 1) == 1)
                          M         bsf     PORTB,  001h
                          M     else
0171   1086               M         bcf     PORTB,  001h
                          M     endif
                      00244 
                      00245 ; C:\PBP\KEYPAD~1.PBP           00046          portb.0=1:portb.1=0:portb.2=0
                      00246         MOVE?CT 000h, _PORTB??2
                          M         CHK?RP  PORTB
                          M     if (((PORTB) & 180h) == 0)
                          M       if (PREV_BANK == 1)
                          M         bcf     STATUS, RP0
                          M       endif
                          M       if (PREV_BANK == 2)
                          M         bcf     STATUS, RP1
                          M       endif
                          M       if (PREV_BANK == 3)
                          M         bcf     STATUS, RP0
                          M         bcf     STATUS, RP1
MPASM  5.44                      KEYPAD~1.ASM   4-20-2020  12:51:35         PAGE 86


LOC  OBJECT CODE     LINE SOURCE TEXT
  VALUE

                          M       endif
  00000000                M PREV_BANK = 0
                          M     endif
                          M 
                          M     if (((PORTB) & 180h) == 80h)
                          M       if (PREV_BANK == 0)
                          M         bsf     STATUS, RP0
                          M       endif
                          M       if (PREV_BANK == 2)
                          M         bsf     STATUS, RP0
                          M         bcf     STATUS, RP1
                          M       endif
                          M       if (PREV_BANK == 3)
                          M         bcf     STATUS, RP1
                          M       endif
                          M PREV_BANK = 1
                          M     endif
                          M 
                          M     if (((PORTB) & 180h) == 100h)
                          M       if (PREV_BANK == 0)
                          M         bsf     STATUS, RP1
                          M       endif
                          M       if (PREV_BANK == 1)
                          M         bcf     STATUS, RP0
                          M         bsf     STATUS, RP1
                          M       endif
                          M       if (PREV_BANK == 3)
                          M         bcf     STATUS, RP0
                          M       endif
                          M PREV_BANK = 2
                          M     endif
                          M 
                          M     if (((PORTB) & 180h) == 180h)
                          M       if (PREV_BANK == 0)
                          M         bsf     STATUS, RP0
                          M         bsf     STATUS, RP1
                          M       endif
                          M       if (PREV_BANK == 1)
                          M         bsf     STATUS, RP1
                          M       endif
                          M       if (PREV_BANK == 2)
                          M         bsf     STATUS, RP0
                          M       endif
                          M PREV_BANK = 3
                          M     endif
                          M     if (((000h) & 1) == 1)
                          M         bsf     PORTB,  002h
                          M     else
0172   1106               M         bcf     PORTB,  002h
                          M     endif
                      00247 
                      00248 ; C:\PBP\KEYPAD~1.PBP           00047          if portb.3=1 then i=1 : return
                      00249         CMPNE?TCL       _PORTB??3, 001h, L00005
MPASM  5.44                      KEYPAD~1.ASM   4-20-2020  12:51:35         PAGE 87


LOC  OBJECT CODE     LINE SOURCE TEXT
  VALUE

                          M     if ((001h) == 0)
                          M         CLRWDT?
                          M         BIT?GOTO 1, PORTB, 003h,  L00005
                          M     else
                          M       if ((001h) == 1)
                          M         CLRWDT?
                          M     ifndef NO_CLRWDT
0173   0064               M         clrwdt
                          M     endif
                          M         BIT?GOTO 0, PORTB, 003h,  L00005
                          M     ifdef USE_LINKER
                          M         CLRWDT?
                          M     else
                          M       if ($ == (L00005))
                          M         CLRWDT?
                          M       endif
                          M     endif
                          M 
                          M     ifdef USE_LINKER
                          M       if (CODE_SIZE > 2)
                          M         pagesel L00005
                          M       endif
                          M     else
                          M       if (CODE_SIZE > 2)
                          M         if (((L00005) & 800h) == 0)
0174   118A               M         bcf     PCLATH, 3
                          M         else
                          M         bsf     PCLATH, 3
                          M         endif
                          M       endif
                          M       if (CODE_SIZE > 4)
                          M         if (((L00005) & 1000h) == 0)
0175   120A               M         bcf     PCLATH, 4
                          M         else
                          M         bsf     PCLATH, 4
                          M         endif
                          M       endif
                          M     endif
                          M 
                          M     if (((PORTB) & 0ff80h) != 0)
                          M         CHK?RP  PORTB
                          M         bcf     STATUS, DC
                          M       if ((0)      == 0)
                          M         btfss   PORTB, 003h
                          M       else
                          M         btfsc   PORTB, 003h
                          M       endif
                          M         bsf     STATUS, DC
                          M         RST?RP
                          M         btfsc   STATUS, DC
                          M     else
                          M         RST?RP
                          M     if ((PREV_BANK & 1) != 0)
MPASM  5.44                      KEYPAD~1.ASM   4-20-2020  12:51:35         PAGE 88


LOC  OBJECT CODE     LINE SOURCE TEXT
  VALUE

                          M         bcf     STATUS, RP0
                          M     endif
                          M     if ((PREV_BANK & 2) != 0)
                          M         bcf     STATUS, RP1
                          M     endif
  00000000                M PREV_BANK = 0
                          M       if ((0)      == 0)
0176   1D86               M         btfss   PORTB, 003h
                          M       else
                          M         btfsc   PORTB, 003h
                          M       endif
                          M     endif
                          M 
0177   297B               M         goto    L00005
                          M       else
                          M         L?GOTO  L00005
                          M       endif
                          M     endif
                      00250         MOVE?CB 001h, _i
                          M         CHK?RP  _i
                          M     if (((_i)    & 180h) == 0)
                          M       if (PREV_BANK == 1)
                          M         bcf     STATUS, RP0
                          M       endif
                          M       if (PREV_BANK == 2)
                          M         bcf     STATUS, RP1
                          M       endif
                          M       if (PREV_BANK == 3)
                          M         bcf     STATUS, RP0
                          M         bcf     STATUS, RP1
                          M       endif
  00000000                M PREV_BANK = 0
                          M     endif
                          M 
                          M     if (((_i)    & 180h) == 80h)
                          M       if (PREV_BANK == 0)
                          M         bsf     STATUS, RP0
                          M       endif
                          M       if (PREV_BANK == 2)
                          M         bsf     STATUS, RP0
                          M         bcf     STATUS, RP1
                          M       endif
                          M       if (PREV_BANK == 3)
                          M         bcf     STATUS, RP1
                          M       endif
                          M PREV_BANK = 1
                          M     endif
                          M 
                          M     if (((_i)    & 180h) == 100h)
                          M       if (PREV_BANK == 0)
                          M         bsf     STATUS, RP1
                          M       endif
                          M       if (PREV_BANK == 1)
MPASM  5.44                      KEYPAD~1.ASM   4-20-2020  12:51:35         PAGE 89


LOC  OBJECT CODE     LINE SOURCE TEXT
  VALUE

                          M         bcf     STATUS, RP0
                          M         bsf     STATUS, RP1
                          M       endif
                          M       if (PREV_BANK == 3)
                          M         bcf     STATUS, RP0
                          M       endif
                          M PREV_BANK = 2
                          M     endif
                          M 
                          M     if (((_i)    & 180h) == 180h)
                          M       if (PREV_BANK == 0)
                          M         bsf     STATUS, RP0
                          M         bsf     STATUS, RP1
                          M       endif
                          M       if (PREV_BANK == 1)
                          M         bsf     STATUS, RP1
                          M       endif
                          M       if (PREV_BANK == 2)
                          M         bsf     STATUS, RP0
                          M       endif
                          M PREV_BANK = 3
                          M     endif
                          M     if (low (001h) == 0)
                          M         clrf    _i
                          M     else
0178   3001               M         movlw   low (001h)
0179   00B8               M         movwf   _i
                          M     endif
                      00251         RETURN? 
                          M     ifdef DEBUG_STACK
                          M         CHK?RP  DEBUG_STACK
                          M         decf    DEBUG_STACK, F
                          M     endif
                          M         RST?RP
                          M     if ((PREV_BANK & 1) != 0)
                          M         bcf     STATUS, RP0
                          M     endif
                          M     if ((PREV_BANK & 2) != 0)
                          M         bcf     STATUS, RP1
                          M     endif
  00000000                M PREV_BANK = 0
017A   0008               M         return
                      00252         LABEL?L L00005  
                          M         RST?RP
                          M     if ((PREV_BANK & 1) != 0)
                          M         bcf     STATUS, RP0
                          M     endif
                          M     if ((PREV_BANK & 2) != 0)
                          M         bcf     STATUS, RP1
                          M     endif
  00000000                M PREV_BANK = 0
                          M     ifdef PM_USED
                          M         LALL
MPASM  5.44                      KEYPAD~1.ASM   4-20-2020  12:51:35         PAGE 90


LOC  OBJECT CODE     LINE SOURCE TEXT
  VALUE

                          M L00005
                          M         XALL
                          M     else
017B                      M L00005
                          M     endif
                      00253 
                      00254 ; C:\PBP\KEYPAD~1.PBP           00048          if portb.4=1 then i=4 : return
                      00255         CMPNE?TCL       _PORTB??4, 001h, L00007
                          M     if ((001h) == 0)
                          M         CLRWDT?
                          M         BIT?GOTO 1, PORTB, 004h,  L00007
                          M     else
                          M       if ((001h) == 1)
                          M         CLRWDT?
                          M     ifndef NO_CLRWDT
017B   0064               M         clrwdt
                          M     endif
                          M         BIT?GOTO 0, PORTB, 004h,  L00007
                          M     ifdef USE_LINKER
                          M         CLRWDT?
                          M     else
                          M       if ($ == (L00007))
                          M         CLRWDT?
                          M       endif
                          M     endif
                          M 
                          M     ifdef USE_LINKER
                          M       if (CODE_SIZE > 2)
                          M         pagesel L00007
                          M       endif
                          M     else
                          M       if (CODE_SIZE > 2)
                          M         if (((L00007) & 800h) == 0)
017C   118A               M         bcf     PCLATH, 3
                          M         else
                          M         bsf     PCLATH, 3
                          M         endif
                          M       endif
                          M       if (CODE_SIZE > 4)
                          M         if (((L00007) & 1000h) == 0)
017D   120A               M         bcf     PCLATH, 4
                          M         else
                          M         bsf     PCLATH, 4
                          M         endif
                          M       endif
                          M     endif
                          M 
                          M     if (((PORTB) & 0ff80h) != 0)
                          M         CHK?RP  PORTB
                          M         bcf     STATUS, DC
                          M       if ((0)      == 0)
                          M         btfss   PORTB, 004h
                          M       else
MPASM  5.44                      KEYPAD~1.ASM   4-20-2020  12:51:35         PAGE 91


LOC  OBJECT CODE     LINE SOURCE TEXT
  VALUE

                          M         btfsc   PORTB, 004h
                          M       endif
                          M         bsf     STATUS, DC
                          M         RST?RP
                          M         btfsc   STATUS, DC
                          M     else
                          M         RST?RP
                          M     if ((PREV_BANK & 1) != 0)
                          M         bcf     STATUS, RP0
                          M     endif
                          M     if ((PREV_BANK & 2) != 0)
                          M         bcf     STATUS, RP1
                          M     endif
  00000000                M PREV_BANK = 0
                          M       if ((0)      == 0)
017E   1E06               M         btfss   PORTB, 004h
                          M       else
                          M         btfsc   PORTB, 004h
                          M       endif
                          M     endif
                          M 
017F   2983               M         goto    L00007
                          M       else
                          M         L?GOTO  L00007
                          M       endif
                          M     endif
                      00256         MOVE?CB 004h, _i
                          M         CHK?RP  _i
                          M     if (((_i)    & 180h) == 0)
                          M       if (PREV_BANK == 1)
                          M         bcf     STATUS, RP0
                          M       endif
                          M       if (PREV_BANK == 2)
                          M         bcf     STATUS, RP1
                          M       endif
                          M       if (PREV_BANK == 3)
                          M         bcf     STATUS, RP0
                          M         bcf     STATUS, RP1
                          M       endif
  00000000                M PREV_BANK = 0
                          M     endif
                          M 
                          M     if (((_i)    & 180h) == 80h)
                          M       if (PREV_BANK == 0)
                          M         bsf     STATUS, RP0
                          M       endif
                          M       if (PREV_BANK == 2)
                          M         bsf     STATUS, RP0
                          M         bcf     STATUS, RP1
                          M       endif
                          M       if (PREV_BANK == 3)
                          M         bcf     STATUS, RP1
                          M       endif
MPASM  5.44                      KEYPAD~1.ASM   4-20-2020  12:51:35         PAGE 92


LOC  OBJECT CODE     LINE SOURCE TEXT
  VALUE

                          M PREV_BANK = 1
                          M     endif
                          M 
                          M     if (((_i)    & 180h) == 100h)
                          M       if (PREV_BANK == 0)
                          M         bsf     STATUS, RP1
                          M       endif
                          M       if (PREV_BANK == 1)
                          M         bcf     STATUS, RP0
                          M         bsf     STATUS, RP1
                          M       endif
                          M       if (PREV_BANK == 3)
                          M         bcf     STATUS, RP0
                          M       endif
                          M PREV_BANK = 2
                          M     endif
                          M 
                          M     if (((_i)    & 180h) == 180h)
                          M       if (PREV_BANK == 0)
                          M         bsf     STATUS, RP0
                          M         bsf     STATUS, RP1
                          M       endif
                          M       if (PREV_BANK == 1)
                          M         bsf     STATUS, RP1
                          M       endif
                          M       if (PREV_BANK == 2)
                          M         bsf     STATUS, RP0
                          M       endif
                          M PREV_BANK = 3
                          M     endif
                          M     if (low (004h) == 0)
                          M         clrf    _i
                          M     else
0180   3004               M         movlw   low (004h)
0181   00B8               M         movwf   _i
                          M     endif
                      00257         RETURN? 
                          M     ifdef DEBUG_STACK
                          M         CHK?RP  DEBUG_STACK
                          M         decf    DEBUG_STACK, F
                          M     endif
                          M         RST?RP
                          M     if ((PREV_BANK & 1) != 0)
                          M         bcf     STATUS, RP0
                          M     endif
                          M     if ((PREV_BANK & 2) != 0)
                          M         bcf     STATUS, RP1
                          M     endif
  00000000                M PREV_BANK = 0
0182   0008               M         return
                      00258         LABEL?L L00007  
                          M         RST?RP
                          M     if ((PREV_BANK & 1) != 0)
MPASM  5.44                      KEYPAD~1.ASM   4-20-2020  12:51:35         PAGE 93


LOC  OBJECT CODE     LINE SOURCE TEXT
  VALUE

                          M         bcf     STATUS, RP0
                          M     endif
                          M     if ((PREV_BANK & 2) != 0)
                          M         bcf     STATUS, RP1
                          M     endif
  00000000                M PREV_BANK = 0
                          M     ifdef PM_USED
                          M         LALL
                          M L00007
                          M         XALL
                          M     else
0183                      M L00007
                          M     endif
                      00259 
                      00260 ; C:\PBP\KEYPAD~1.PBP           00049          if portb.5=1 then i=7 : return
                      00261         CMPNE?TCL       _PORTB??5, 001h, L00009
                          M     if ((001h) == 0)
                          M         CLRWDT?
                          M         BIT?GOTO 1, PORTB, 005h,  L00009
                          M     else
                          M       if ((001h) == 1)
                          M         CLRWDT?
                          M     ifndef NO_CLRWDT
0183   0064               M         clrwdt
                          M     endif
                          M         BIT?GOTO 0, PORTB, 005h,  L00009
                          M     ifdef USE_LINKER
                          M         CLRWDT?
                          M     else
                          M       if ($ == (L00009))
                          M         CLRWDT?
                          M       endif
                          M     endif
                          M 
                          M     ifdef USE_LINKER
                          M       if (CODE_SIZE > 2)
                          M         pagesel L00009
                          M       endif
                          M     else
                          M       if (CODE_SIZE > 2)
                          M         if (((L00009) & 800h) == 0)
0184   118A               M         bcf     PCLATH, 3
                          M         else
                          M         bsf     PCLATH, 3
                          M         endif
                          M       endif
                          M       if (CODE_SIZE > 4)
                          M         if (((L00009) & 1000h) == 0)
0185   120A               M         bcf     PCLATH, 4
                          M         else
                          M         bsf     PCLATH, 4
                          M         endif
                          M       endif
MPASM  5.44                      KEYPAD~1.ASM   4-20-2020  12:51:35         PAGE 94


LOC  OBJECT CODE     LINE SOURCE TEXT
  VALUE

                          M     endif
                          M 
                          M     if (((PORTB) & 0ff80h) != 0)
                          M         CHK?RP  PORTB
                          M         bcf     STATUS, DC
                          M       if ((0)      == 0)
                          M         btfss   PORTB, 005h
                          M       else
                          M         btfsc   PORTB, 005h
                          M       endif
                          M         bsf     STATUS, DC
                          M         RST?RP
                          M         btfsc   STATUS, DC
                          M     else
                          M         RST?RP
                          M     if ((PREV_BANK & 1) != 0)
                          M         bcf     STATUS, RP0
                          M     endif
                          M     if ((PREV_BANK & 2) != 0)
                          M         bcf     STATUS, RP1
                          M     endif
  00000000                M PREV_BANK = 0
                          M       if ((0)      == 0)
0186   1E86               M         btfss   PORTB, 005h
                          M       else
                          M         btfsc   PORTB, 005h
                          M       endif
                          M     endif
                          M 
0187   298B               M         goto    L00009
                          M       else
                          M         L?GOTO  L00009
                          M       endif
                          M     endif
                      00262         MOVE?CB 007h, _i
                          M         CHK?RP  _i
                          M     if (((_i)    & 180h) == 0)
                          M       if (PREV_BANK == 1)
                          M         bcf     STATUS, RP0
                          M       endif
                          M       if (PREV_BANK == 2)
                          M         bcf     STATUS, RP1
                          M       endif
                          M       if (PREV_BANK == 3)
                          M         bcf     STATUS, RP0
                          M         bcf     STATUS, RP1
                          M       endif
  00000000                M PREV_BANK = 0
                          M     endif
                          M 
                          M     if (((_i)    & 180h) == 80h)
                          M       if (PREV_BANK == 0)
                          M         bsf     STATUS, RP0
MPASM  5.44                      KEYPAD~1.ASM   4-20-2020  12:51:35         PAGE 95


LOC  OBJECT CODE     LINE SOURCE TEXT
  VALUE

                          M       endif
                          M       if (PREV_BANK == 2)
                          M         bsf     STATUS, RP0
                          M         bcf     STATUS, RP1
                          M       endif
                          M       if (PREV_BANK == 3)
                          M         bcf     STATUS, RP1
                          M       endif
                          M PREV_BANK = 1
                          M     endif
                          M 
                          M     if (((_i)    & 180h) == 100h)
                          M       if (PREV_BANK == 0)
                          M         bsf     STATUS, RP1
                          M       endif
                          M       if (PREV_BANK == 1)
                          M         bcf     STATUS, RP0
                          M         bsf     STATUS, RP1
                          M       endif
                          M       if (PREV_BANK == 3)
                          M         bcf     STATUS, RP0
                          M       endif
                          M PREV_BANK = 2
                          M     endif
                          M 
                          M     if (((_i)    & 180h) == 180h)
                          M       if (PREV_BANK == 0)
                          M         bsf     STATUS, RP0
                          M         bsf     STATUS, RP1
                          M       endif
                          M       if (PREV_BANK == 1)
                          M         bsf     STATUS, RP1
                          M       endif
                          M       if (PREV_BANK == 2)
                          M         bsf     STATUS, RP0
                          M       endif
                          M PREV_BANK = 3
                          M     endif
                          M     if (low (007h) == 0)
                          M         clrf    _i
                          M     else
0188   3007               M         movlw   low (007h)
0189   00B8               M         movwf   _i
                          M     endif
                      00263         RETURN? 
                          M     ifdef DEBUG_STACK
                          M         CHK?RP  DEBUG_STACK
                          M         decf    DEBUG_STACK, F
                          M     endif
                          M         RST?RP
                          M     if ((PREV_BANK & 1) != 0)
                          M         bcf     STATUS, RP0
                          M     endif
MPASM  5.44                      KEYPAD~1.ASM   4-20-2020  12:51:35         PAGE 96


LOC  OBJECT CODE     LINE SOURCE TEXT
  VALUE

                          M     if ((PREV_BANK & 2) != 0)
                          M         bcf     STATUS, RP1
                          M     endif
  00000000                M PREV_BANK = 0
018A   0008               M         return
                      00264         LABEL?L L00009  
                          M         RST?RP
                          M     if ((PREV_BANK & 1) != 0)
                          M         bcf     STATUS, RP0
                          M     endif
                          M     if ((PREV_BANK & 2) != 0)
                          M         bcf     STATUS, RP1
                          M     endif
  00000000                M PREV_BANK = 0
                          M     ifdef PM_USED
                          M         LALL
                          M L00009
                          M         XALL
                          M     else
018B                      M L00009
                          M     endif
                      00265 
                      00266 ; C:\PBP\KEYPAD~1.PBP           00052          portb.0=0:portb.1=1:portb.2=0
                      00267         MOVE?CT 000h, _PORTB??0
                          M         CHK?RP  PORTB
                          M     if (((PORTB) & 180h) == 0)
                          M       if (PREV_BANK == 1)
                          M         bcf     STATUS, RP0
                          M       endif
                          M       if (PREV_BANK == 2)
                          M         bcf     STATUS, RP1
                          M       endif
                          M       if (PREV_BANK == 3)
                          M         bcf     STATUS, RP0
                          M         bcf     STATUS, RP1
                          M       endif
  00000000                M PREV_BANK = 0
                          M     endif
                          M 
                          M     if (((PORTB) & 180h) == 80h)
                          M       if (PREV_BANK == 0)
                          M         bsf     STATUS, RP0
                          M       endif
                          M       if (PREV_BANK == 2)
                          M         bsf     STATUS, RP0
                          M         bcf     STATUS, RP1
                          M       endif
                          M       if (PREV_BANK == 3)
                          M         bcf     STATUS, RP1
                          M       endif
                          M PREV_BANK = 1
                          M     endif
                          M 
MPASM  5.44                      KEYPAD~1.ASM   4-20-2020  12:51:35         PAGE 97


LOC  OBJECT CODE     LINE SOURCE TEXT
  VALUE

                          M     if (((PORTB) & 180h) == 100h)
                          M       if (PREV_BANK == 0)
                          M         bsf     STATUS, RP1
                          M       endif
                          M       if (PREV_BANK == 1)
                          M         bcf     STATUS, RP0
                          M         bsf     STATUS, RP1
                          M       endif
                          M       if (PREV_BANK == 3)
                          M         bcf     STATUS, RP0
                          M       endif
                          M PREV_BANK = 2
                          M     endif
                          M 
                          M     if (((PORTB) & 180h) == 180h)
                          M       if (PREV_BANK == 0)
                          M         bsf     STATUS, RP0
                          M         bsf     STATUS, RP1
                          M       endif
                          M       if (PREV_BANK == 1)
                          M         bsf     STATUS, RP1
                          M       endif
                          M       if (PREV_BANK == 2)
                          M         bsf     STATUS, RP0
                          M       endif
                          M PREV_BANK = 3
                          M     endif
                          M     if (((000h) & 1) == 1)
                          M         bsf     PORTB,  000h
                          M     else
018B   1006               M         bcf     PORTB,  000h
                          M     endif
                      00268 
                      00269 ; C:\PBP\KEYPAD~1.PBP           00052          portb.0=0:portb.1=1:portb.2=0
                      00270         MOVE?CT 001h, _PORTB??1
                          M         CHK?RP  PORTB
                          M     if (((PORTB) & 180h) == 0)
                          M       if (PREV_BANK == 1)
                          M         bcf     STATUS, RP0
                          M       endif
                          M       if (PREV_BANK == 2)
                          M         bcf     STATUS, RP1
                          M       endif
                          M       if (PREV_BANK == 3)
                          M         bcf     STATUS, RP0
                          M         bcf     STATUS, RP1
                          M       endif
  00000000                M PREV_BANK = 0
                          M     endif
                          M 
                          M     if (((PORTB) & 180h) == 80h)
                          M       if (PREV_BANK == 0)
                          M         bsf     STATUS, RP0
MPASM  5.44                      KEYPAD~1.ASM   4-20-2020  12:51:35         PAGE 98


LOC  OBJECT CODE     LINE SOURCE TEXT
  VALUE

                          M       endif
                          M       if (PREV_BANK == 2)
                          M         bsf     STATUS, RP0
                          M         bcf     STATUS, RP1
                          M       endif
                          M       if (PREV_BANK == 3)
                          M         bcf     STATUS, RP1
                          M       endif
                          M PREV_BANK = 1
                          M     endif
                          M 
                          M     if (((PORTB) & 180h) == 100h)
                          M       if (PREV_BANK == 0)
                          M         bsf     STATUS, RP1
                          M       endif
                          M       if (PREV_BANK == 1)
                          M         bcf     STATUS, RP0
                          M         bsf     STATUS, RP1
                          M       endif
                          M       if (PREV_BANK == 3)
                          M         bcf     STATUS, RP0
                          M       endif
                          M PREV_BANK = 2
                          M     endif
                          M 
                          M     if (((PORTB) & 180h) == 180h)
                          M       if (PREV_BANK == 0)
                          M         bsf     STATUS, RP0
                          M         bsf     STATUS, RP1
                          M       endif
                          M       if (PREV_BANK == 1)
                          M         bsf     STATUS, RP1
                          M       endif
                          M       if (PREV_BANK == 2)
                          M         bsf     STATUS, RP0
                          M       endif
                          M PREV_BANK = 3
                          M     endif
                          M     if (((001h) & 1) == 1)
018C   1486               M         bsf     PORTB,  001h
                          M     else
                          M         bcf     PORTB,  001h
                          M     endif
                      00271 
                      00272 ; C:\PBP\KEYPAD~1.PBP           00052          portb.0=0:portb.1=1:portb.2=0
                      00273         MOVE?CT 000h, _PORTB??2
                          M         CHK?RP  PORTB
                          M     if (((PORTB) & 180h) == 0)
                          M       if (PREV_BANK == 1)
                          M         bcf     STATUS, RP0
                          M       endif
                          M       if (PREV_BANK == 2)
                          M         bcf     STATUS, RP1
MPASM  5.44                      KEYPAD~1.ASM   4-20-2020  12:51:35         PAGE 99


LOC  OBJECT CODE     LINE SOURCE TEXT
  VALUE

                          M       endif
                          M       if (PREV_BANK == 3)
                          M         bcf     STATUS, RP0
                          M         bcf     STATUS, RP1
                          M       endif
  00000000                M PREV_BANK = 0
                          M     endif
                          M 
                          M     if (((PORTB) & 180h) == 80h)
                          M       if (PREV_BANK == 0)
                          M         bsf     STATUS, RP0
                          M       endif
                          M       if (PREV_BANK == 2)
                          M         bsf     STATUS, RP0
                          M         bcf     STATUS, RP1
                          M       endif
                          M       if (PREV_BANK == 3)
                          M         bcf     STATUS, RP1
                          M       endif
                          M PREV_BANK = 1
                          M     endif
                          M 
                          M     if (((PORTB) & 180h) == 100h)
                          M       if (PREV_BANK == 0)
                          M         bsf     STATUS, RP1
                          M       endif
                          M       if (PREV_BANK == 1)
                          M         bcf     STATUS, RP0
                          M         bsf     STATUS, RP1
                          M       endif
                          M       if (PREV_BANK == 3)
                          M         bcf     STATUS, RP0
                          M       endif
                          M PREV_BANK = 2
                          M     endif
                          M 
                          M     if (((PORTB) & 180h) == 180h)
                          M       if (PREV_BANK == 0)
                          M         bsf     STATUS, RP0
                          M         bsf     STATUS, RP1
                          M       endif
                          M       if (PREV_BANK == 1)
                          M         bsf     STATUS, RP1
                          M       endif
                          M       if (PREV_BANK == 2)
                          M         bsf     STATUS, RP0
                          M       endif
                          M PREV_BANK = 3
                          M     endif
                          M     if (((000h) & 1) == 1)
                          M         bsf     PORTB,  002h
                          M     else
018D   1106               M         bcf     PORTB,  002h
MPASM  5.44                      KEYPAD~1.ASM   4-20-2020  12:51:35         PAGE 100


LOC  OBJECT CODE     LINE SOURCE TEXT
  VALUE

                          M     endif
                      00274 
                      00275 ; C:\PBP\KEYPAD~1.PBP           00053          if portb.3=1 then i=2 : return
                      00276         CMPNE?TCL       _PORTB??3, 001h, L00011
                          M     if ((001h) == 0)
                          M         CLRWDT?
                          M         BIT?GOTO 1, PORTB, 003h,  L00011
                          M     else
                          M       if ((001h) == 1)
                          M         CLRWDT?
                          M     ifndef NO_CLRWDT
018E   0064               M         clrwdt
                          M     endif
                          M         BIT?GOTO 0, PORTB, 003h,  L00011
                          M     ifdef USE_LINKER
                          M         CLRWDT?
                          M     else
                          M       if ($ == (L00011))
                          M         CLRWDT?
                          M       endif
                          M     endif
                          M 
                          M     ifdef USE_LINKER
                          M       if (CODE_SIZE > 2)
                          M         pagesel L00011
                          M       endif
                          M     else
                          M       if (CODE_SIZE > 2)
                          M         if (((L00011) & 800h) == 0)
018F   118A               M         bcf     PCLATH, 3
                          M         else
                          M         bsf     PCLATH, 3
                          M         endif
                          M       endif
                          M       if (CODE_SIZE > 4)
                          M         if (((L00011) & 1000h) == 0)
0190   120A               M         bcf     PCLATH, 4
                          M         else
                          M         bsf     PCLATH, 4
                          M         endif
                          M       endif
                          M     endif
                          M 
                          M     if (((PORTB) & 0ff80h) != 0)
                          M         CHK?RP  PORTB
                          M         bcf     STATUS, DC
                          M       if ((0)      == 0)
                          M         btfss   PORTB, 003h
                          M       else
                          M         btfsc   PORTB, 003h
                          M       endif
                          M         bsf     STATUS, DC
                          M         RST?RP
MPASM  5.44                      KEYPAD~1.ASM   4-20-2020  12:51:35         PAGE 101


LOC  OBJECT CODE     LINE SOURCE TEXT
  VALUE

                          M         btfsc   STATUS, DC
                          M     else
                          M         RST?RP
                          M     if ((PREV_BANK & 1) != 0)
                          M         bcf     STATUS, RP0
                          M     endif
                          M     if ((PREV_BANK & 2) != 0)
                          M         bcf     STATUS, RP1
                          M     endif
  00000000                M PREV_BANK = 0
                          M       if ((0)      == 0)
0191   1D86               M         btfss   PORTB, 003h
                          M       else
                          M         btfsc   PORTB, 003h
                          M       endif
                          M     endif
                          M 
0192   2996               M         goto    L00011
                          M       else
                          M         L?GOTO  L00011
                          M       endif
                          M     endif
                      00277         MOVE?CB 002h, _i
                          M         CHK?RP  _i
                          M     if (((_i)    & 180h) == 0)
                          M       if (PREV_BANK == 1)
                          M         bcf     STATUS, RP0
                          M       endif
                          M       if (PREV_BANK == 2)
                          M         bcf     STATUS, RP1
                          M       endif
                          M       if (PREV_BANK == 3)
                          M         bcf     STATUS, RP0
                          M         bcf     STATUS, RP1
                          M       endif
  00000000                M PREV_BANK = 0
                          M     endif
                          M 
                          M     if (((_i)    & 180h) == 80h)
                          M       if (PREV_BANK == 0)
                          M         bsf     STATUS, RP0
                          M       endif
                          M       if (PREV_BANK == 2)
                          M         bsf     STATUS, RP0
                          M         bcf     STATUS, RP1
                          M       endif
                          M       if (PREV_BANK == 3)
                          M         bcf     STATUS, RP1
                          M       endif
                          M PREV_BANK = 1
                          M     endif
                          M 
                          M     if (((_i)    & 180h) == 100h)
MPASM  5.44                      KEYPAD~1.ASM   4-20-2020  12:51:35         PAGE 102


LOC  OBJECT CODE     LINE SOURCE TEXT
  VALUE

                          M       if (PREV_BANK == 0)
                          M         bsf     STATUS, RP1
                          M       endif
                          M       if (PREV_BANK == 1)
                          M         bcf     STATUS, RP0
                          M         bsf     STATUS, RP1
                          M       endif
                          M       if (PREV_BANK == 3)
                          M         bcf     STATUS, RP0
                          M       endif
                          M PREV_BANK = 2
                          M     endif
                          M 
                          M     if (((_i)    & 180h) == 180h)
                          M       if (PREV_BANK == 0)
                          M         bsf     STATUS, RP0
                          M         bsf     STATUS, RP1
                          M       endif
                          M       if (PREV_BANK == 1)
                          M         bsf     STATUS, RP1
                          M       endif
                          M       if (PREV_BANK == 2)
                          M         bsf     STATUS, RP0
                          M       endif
                          M PREV_BANK = 3
                          M     endif
                          M     if (low (002h) == 0)
                          M         clrf    _i
                          M     else
0193   3002               M         movlw   low (002h)
0194   00B8               M         movwf   _i
                          M     endif
                      00278         RETURN? 
                          M     ifdef DEBUG_STACK
                          M         CHK?RP  DEBUG_STACK
                          M         decf    DEBUG_STACK, F
                          M     endif
                          M         RST?RP
                          M     if ((PREV_BANK & 1) != 0)
                          M         bcf     STATUS, RP0
                          M     endif
                          M     if ((PREV_BANK & 2) != 0)
                          M         bcf     STATUS, RP1
                          M     endif
  00000000                M PREV_BANK = 0
0195   0008               M         return
                      00279         LABEL?L L00011  
                          M         RST?RP
                          M     if ((PREV_BANK & 1) != 0)
                          M         bcf     STATUS, RP0
                          M     endif
                          M     if ((PREV_BANK & 2) != 0)
                          M         bcf     STATUS, RP1
MPASM  5.44                      KEYPAD~1.ASM   4-20-2020  12:51:35         PAGE 103


LOC  OBJECT CODE     LINE SOURCE TEXT
  VALUE

                          M     endif
  00000000                M PREV_BANK = 0
                          M     ifdef PM_USED
                          M         LALL
                          M L00011
                          M         XALL
                          M     else
0196                      M L00011
                          M     endif
                      00280 
                      00281 ; C:\PBP\KEYPAD~1.PBP           00054          if portb.4=1 then i=5 : return
                      00282         CMPNE?TCL       _PORTB??4, 001h, L00013
                          M     if ((001h) == 0)
                          M         CLRWDT?
                          M         BIT?GOTO 1, PORTB, 004h,  L00013
                          M     else
                          M       if ((001h) == 1)
                          M         CLRWDT?
                          M     ifndef NO_CLRWDT
0196   0064               M         clrwdt
                          M     endif
                          M         BIT?GOTO 0, PORTB, 004h,  L00013
                          M     ifdef USE_LINKER
                          M         CLRWDT?
                          M     else
                          M       if ($ == (L00013))
                          M         CLRWDT?
                          M       endif
                          M     endif
                          M 
                          M     ifdef USE_LINKER
                          M       if (CODE_SIZE > 2)
                          M         pagesel L00013
                          M       endif
                          M     else
                          M       if (CODE_SIZE > 2)
                          M         if (((L00013) & 800h) == 0)
0197   118A               M         bcf     PCLATH, 3
                          M         else
                          M         bsf     PCLATH, 3
                          M         endif
                          M       endif
                          M       if (CODE_SIZE > 4)
                          M         if (((L00013) & 1000h) == 0)
0198   120A               M         bcf     PCLATH, 4
                          M         else
                          M         bsf     PCLATH, 4
                          M         endif
                          M       endif
                          M     endif
                          M 
                          M     if (((PORTB) & 0ff80h) != 0)
                          M         CHK?RP  PORTB
MPASM  5.44                      KEYPAD~1.ASM   4-20-2020  12:51:35         PAGE 104


LOC  OBJECT CODE     LINE SOURCE TEXT
  VALUE

                          M         bcf     STATUS, DC
                          M       if ((0)      == 0)
                          M         btfss   PORTB, 004h
                          M       else
                          M         btfsc   PORTB, 004h
                          M       endif
                          M         bsf     STATUS, DC
                          M         RST?RP
                          M         btfsc   STATUS, DC
                          M     else
                          M         RST?RP
                          M     if ((PREV_BANK & 1) != 0)
                          M         bcf     STATUS, RP0
                          M     endif
                          M     if ((PREV_BANK & 2) != 0)
                          M         bcf     STATUS, RP1
                          M     endif
  00000000                M PREV_BANK = 0
                          M       if ((0)      == 0)
0199   1E06               M         btfss   PORTB, 004h
                          M       else
                          M         btfsc   PORTB, 004h
                          M       endif
                          M     endif
                          M 
019A   299E               M         goto    L00013
                          M       else
                          M         L?GOTO  L00013
                          M       endif
                          M     endif
                      00283         MOVE?CB 005h, _i
                          M         CHK?RP  _i
                          M     if (((_i)    & 180h) == 0)
                          M       if (PREV_BANK == 1)
                          M         bcf     STATUS, RP0
                          M       endif
                          M       if (PREV_BANK == 2)
                          M         bcf     STATUS, RP1
                          M       endif
                          M       if (PREV_BANK == 3)
                          M         bcf     STATUS, RP0
                          M         bcf     STATUS, RP1
                          M       endif
  00000000                M PREV_BANK = 0
                          M     endif
                          M 
                          M     if (((_i)    & 180h) == 80h)
                          M       if (PREV_BANK == 0)
                          M         bsf     STATUS, RP0
                          M       endif
                          M       if (PREV_BANK == 2)
                          M         bsf     STATUS, RP0
                          M         bcf     STATUS, RP1
MPASM  5.44                      KEYPAD~1.ASM   4-20-2020  12:51:35         PAGE 105


LOC  OBJECT CODE     LINE SOURCE TEXT
  VALUE

                          M       endif
                          M       if (PREV_BANK == 3)
                          M         bcf     STATUS, RP1
                          M       endif
                          M PREV_BANK = 1
                          M     endif
                          M 
                          M     if (((_i)    & 180h) == 100h)
                          M       if (PREV_BANK == 0)
                          M         bsf     STATUS, RP1
                          M       endif
                          M       if (PREV_BANK == 1)
                          M         bcf     STATUS, RP0
                          M         bsf     STATUS, RP1
                          M       endif
                          M       if (PREV_BANK == 3)
                          M         bcf     STATUS, RP0
                          M       endif
                          M PREV_BANK = 2
                          M     endif
                          M 
                          M     if (((_i)    & 180h) == 180h)
                          M       if (PREV_BANK == 0)
                          M         bsf     STATUS, RP0
                          M         bsf     STATUS, RP1
                          M       endif
                          M       if (PREV_BANK == 1)
                          M         bsf     STATUS, RP1
                          M       endif
                          M       if (PREV_BANK == 2)
                          M         bsf     STATUS, RP0
                          M       endif
                          M PREV_BANK = 3
                          M     endif
                          M     if (low (005h) == 0)
                          M         clrf    _i
                          M     else
019B   3005               M         movlw   low (005h)
019C   00B8               M         movwf   _i
                          M     endif
                      00284         RETURN? 
                          M     ifdef DEBUG_STACK
                          M         CHK?RP  DEBUG_STACK
                          M         decf    DEBUG_STACK, F
                          M     endif
                          M         RST?RP
                          M     if ((PREV_BANK & 1) != 0)
                          M         bcf     STATUS, RP0
                          M     endif
                          M     if ((PREV_BANK & 2) != 0)
                          M         bcf     STATUS, RP1
                          M     endif
  00000000                M PREV_BANK = 0
MPASM  5.44                      KEYPAD~1.ASM   4-20-2020  12:51:35         PAGE 106


LOC  OBJECT CODE     LINE SOURCE TEXT
  VALUE

019D   0008               M         return
                      00285         LABEL?L L00013  
                          M         RST?RP
                          M     if ((PREV_BANK & 1) != 0)
                          M         bcf     STATUS, RP0
                          M     endif
                          M     if ((PREV_BANK & 2) != 0)
                          M         bcf     STATUS, RP1
                          M     endif
  00000000                M PREV_BANK = 0
                          M     ifdef PM_USED
                          M         LALL
                          M L00013
                          M         XALL
                          M     else
019E                      M L00013
                          M     endif
                      00286 
                      00287 ; C:\PBP\KEYPAD~1.PBP           00055          if portb.5=1 then i=8 : return
                      00288         CMPNE?TCL       _PORTB??5, 001h, L00015
                          M     if ((001h) == 0)
                          M         CLRWDT?
                          M         BIT?GOTO 1, PORTB, 005h,  L00015
                          M     else
                          M       if ((001h) == 1)
                          M         CLRWDT?
                          M     ifndef NO_CLRWDT
019E   0064               M         clrwdt
                          M     endif
                          M         BIT?GOTO 0, PORTB, 005h,  L00015
                          M     ifdef USE_LINKER
                          M         CLRWDT?
                          M     else
                          M       if ($ == (L00015))
                          M         CLRWDT?
                          M       endif
                          M     endif
                          M 
                          M     ifdef USE_LINKER
                          M       if (CODE_SIZE > 2)
                          M         pagesel L00015
                          M       endif
                          M     else
                          M       if (CODE_SIZE > 2)
                          M         if (((L00015) & 800h) == 0)
019F   118A               M         bcf     PCLATH, 3
                          M         else
                          M         bsf     PCLATH, 3
                          M         endif
                          M       endif
                          M       if (CODE_SIZE > 4)
                          M         if (((L00015) & 1000h) == 0)
01A0   120A               M         bcf     PCLATH, 4
MPASM  5.44                      KEYPAD~1.ASM   4-20-2020  12:51:35         PAGE 107


LOC  OBJECT CODE     LINE SOURCE TEXT
  VALUE

                          M         else
                          M         bsf     PCLATH, 4
                          M         endif
                          M       endif
                          M     endif
                          M 
                          M     if (((PORTB) & 0ff80h) != 0)
                          M         CHK?RP  PORTB
                          M         bcf     STATUS, DC
                          M       if ((0)      == 0)
                          M         btfss   PORTB, 005h
                          M       else
                          M         btfsc   PORTB, 005h
                          M       endif
                          M         bsf     STATUS, DC
                          M         RST?RP
                          M         btfsc   STATUS, DC
                          M     else
                          M         RST?RP
                          M     if ((PREV_BANK & 1) != 0)
                          M         bcf     STATUS, RP0
                          M     endif
                          M     if ((PREV_BANK & 2) != 0)
                          M         bcf     STATUS, RP1
                          M     endif
  00000000                M PREV_BANK = 0
                          M       if ((0)      == 0)
01A1   1E86               M         btfss   PORTB, 005h
                          M       else
                          M         btfsc   PORTB, 005h
                          M       endif
                          M     endif
                          M 
01A2   29A6               M         goto    L00015
                          M       else
                          M         L?GOTO  L00015
                          M       endif
                          M     endif
                      00289         MOVE?CB 008h, _i
                          M         CHK?RP  _i
                          M     if (((_i)    & 180h) == 0)
                          M       if (PREV_BANK == 1)
                          M         bcf     STATUS, RP0
                          M       endif
                          M       if (PREV_BANK == 2)
                          M         bcf     STATUS, RP1
                          M       endif
                          M       if (PREV_BANK == 3)
                          M         bcf     STATUS, RP0
                          M         bcf     STATUS, RP1
                          M       endif
  00000000                M PREV_BANK = 0
                          M     endif
MPASM  5.44                      KEYPAD~1.ASM   4-20-2020  12:51:35         PAGE 108


LOC  OBJECT CODE     LINE SOURCE TEXT
  VALUE

                          M 
                          M     if (((_i)    & 180h) == 80h)
                          M       if (PREV_BANK == 0)
                          M         bsf     STATUS, RP0
                          M       endif
                          M       if (PREV_BANK == 2)
                          M         bsf     STATUS, RP0
                          M         bcf     STATUS, RP1
                          M       endif
                          M       if (PREV_BANK == 3)
                          M         bcf     STATUS, RP1
                          M       endif
                          M PREV_BANK = 1
                          M     endif
                          M 
                          M     if (((_i)    & 180h) == 100h)
                          M       if (PREV_BANK == 0)
                          M         bsf     STATUS, RP1
                          M       endif
                          M       if (PREV_BANK == 1)
                          M         bcf     STATUS, RP0
                          M         bsf     STATUS, RP1
                          M       endif
                          M       if (PREV_BANK == 3)
                          M         bcf     STATUS, RP0
                          M       endif
                          M PREV_BANK = 2
                          M     endif
                          M 
                          M     if (((_i)    & 180h) == 180h)
                          M       if (PREV_BANK == 0)
                          M         bsf     STATUS, RP0
                          M         bsf     STATUS, RP1
                          M       endif
                          M       if (PREV_BANK == 1)
                          M         bsf     STATUS, RP1
                          M       endif
                          M       if (PREV_BANK == 2)
                          M         bsf     STATUS, RP0
                          M       endif
                          M PREV_BANK = 3
                          M     endif
                          M     if (low (008h) == 0)
                          M         clrf    _i
                          M     else
01A3   3008               M         movlw   low (008h)
01A4   00B8               M         movwf   _i
                          M     endif
                      00290         RETURN? 
                          M     ifdef DEBUG_STACK
                          M         CHK?RP  DEBUG_STACK
                          M         decf    DEBUG_STACK, F
                          M     endif
MPASM  5.44                      KEYPAD~1.ASM   4-20-2020  12:51:35         PAGE 109


LOC  OBJECT CODE     LINE SOURCE TEXT
  VALUE

                          M         RST?RP
                          M     if ((PREV_BANK & 1) != 0)
                          M         bcf     STATUS, RP0
                          M     endif
                          M     if ((PREV_BANK & 2) != 0)
                          M         bcf     STATUS, RP1
                          M     endif
  00000000                M PREV_BANK = 0
01A5   0008               M         return
                      00291         LABEL?L L00015  
                          M         RST?RP
                          M     if ((PREV_BANK & 1) != 0)
                          M         bcf     STATUS, RP0
                          M     endif
                          M     if ((PREV_BANK & 2) != 0)
                          M         bcf     STATUS, RP1
                          M     endif
  00000000                M PREV_BANK = 0
                          M     ifdef PM_USED
                          M         LALL
                          M L00015
                          M         XALL
                          M     else
01A6                      M L00015
                          M     endif
                      00292 
                      00293 ; C:\PBP\KEYPAD~1.PBP           00056          if portb.6=1 then i=0 : return
                      00294         CMPNE?TCL       _PORTB??6, 001h, L00017
                          M     if ((001h) == 0)
                          M         CLRWDT?
                          M         BIT?GOTO 1, PORTB, 006h,  L00017
                          M     else
                          M       if ((001h) == 1)
                          M         CLRWDT?
                          M     ifndef NO_CLRWDT
01A6   0064               M         clrwdt
                          M     endif
                          M         BIT?GOTO 0, PORTB, 006h,  L00017
                          M     ifdef USE_LINKER
                          M         CLRWDT?
                          M     else
                          M       if ($ == (L00017))
                          M         CLRWDT?
                          M       endif
                          M     endif
                          M 
                          M     ifdef USE_LINKER
                          M       if (CODE_SIZE > 2)
                          M         pagesel L00017
                          M       endif
                          M     else
                          M       if (CODE_SIZE > 2)
                          M         if (((L00017) & 800h) == 0)
MPASM  5.44                      KEYPAD~1.ASM   4-20-2020  12:51:35         PAGE 110


LOC  OBJECT CODE     LINE SOURCE TEXT
  VALUE

01A7   118A               M         bcf     PCLATH, 3
                          M         else
                          M         bsf     PCLATH, 3
                          M         endif
                          M       endif
                          M       if (CODE_SIZE > 4)
                          M         if (((L00017) & 1000h) == 0)
01A8   120A               M         bcf     PCLATH, 4
                          M         else
                          M         bsf     PCLATH, 4
                          M         endif
                          M       endif
                          M     endif
                          M 
                          M     if (((PORTB) & 0ff80h) != 0)
                          M         CHK?RP  PORTB
                          M         bcf     STATUS, DC
                          M       if ((0)      == 0)
                          M         btfss   PORTB, 006h
                          M       else
                          M         btfsc   PORTB, 006h
                          M       endif
                          M         bsf     STATUS, DC
                          M         RST?RP
                          M         btfsc   STATUS, DC
                          M     else
                          M         RST?RP
                          M     if ((PREV_BANK & 1) != 0)
                          M         bcf     STATUS, RP0
                          M     endif
                          M     if ((PREV_BANK & 2) != 0)
                          M         bcf     STATUS, RP1
                          M     endif
  00000000                M PREV_BANK = 0
                          M       if ((0)      == 0)
01A9   1F06               M         btfss   PORTB, 006h
                          M       else
                          M         btfsc   PORTB, 006h
                          M       endif
                          M     endif
                          M 
01AA   29AD               M         goto    L00017
                          M       else
                          M         L?GOTO  L00017
                          M       endif
                          M     endif
                      00295         MOVE?CB 000h, _i
                          M         CHK?RP  _i
                          M     if (((_i)    & 180h) == 0)
                          M       if (PREV_BANK == 1)
                          M         bcf     STATUS, RP0
                          M       endif
                          M       if (PREV_BANK == 2)
MPASM  5.44                      KEYPAD~1.ASM   4-20-2020  12:51:35         PAGE 111


LOC  OBJECT CODE     LINE SOURCE TEXT
  VALUE

                          M         bcf     STATUS, RP1
                          M       endif
                          M       if (PREV_BANK == 3)
                          M         bcf     STATUS, RP0
                          M         bcf     STATUS, RP1
                          M       endif
  00000000                M PREV_BANK = 0
                          M     endif
                          M 
                          M     if (((_i)    & 180h) == 80h)
                          M       if (PREV_BANK == 0)
                          M         bsf     STATUS, RP0
                          M       endif
                          M       if (PREV_BANK == 2)
                          M         bsf     STATUS, RP0
                          M         bcf     STATUS, RP1
                          M       endif
                          M       if (PREV_BANK == 3)
                          M         bcf     STATUS, RP1
                          M       endif
                          M PREV_BANK = 1
                          M     endif
                          M 
                          M     if (((_i)    & 180h) == 100h)
                          M       if (PREV_BANK == 0)
                          M         bsf     STATUS, RP1
                          M       endif
                          M       if (PREV_BANK == 1)
                          M         bcf     STATUS, RP0
                          M         bsf     STATUS, RP1
                          M       endif
                          M       if (PREV_BANK == 3)
                          M         bcf     STATUS, RP0
                          M       endif
                          M PREV_BANK = 2
                          M     endif
                          M 
                          M     if (((_i)    & 180h) == 180h)
                          M       if (PREV_BANK == 0)
                          M         bsf     STATUS, RP0
                          M         bsf     STATUS, RP1
                          M       endif
                          M       if (PREV_BANK == 1)
                          M         bsf     STATUS, RP1
                          M       endif
                          M       if (PREV_BANK == 2)
                          M         bsf     STATUS, RP0
                          M       endif
                          M PREV_BANK = 3
                          M     endif
                          M     if (low (000h) == 0)
01AB   01B8               M         clrf    _i
                          M     else
MPASM  5.44                      KEYPAD~1.ASM   4-20-2020  12:51:35         PAGE 112


LOC  OBJECT CODE     LINE SOURCE TEXT
  VALUE

                          M         movlw   low (000h)
                          M         movwf   _i
                          M     endif
                      00296         RETURN? 
                          M     ifdef DEBUG_STACK
                          M         CHK?RP  DEBUG_STACK
                          M         decf    DEBUG_STACK, F
                          M     endif
                          M         RST?RP
                          M     if ((PREV_BANK & 1) != 0)
                          M         bcf     STATUS, RP0
                          M     endif
                          M     if ((PREV_BANK & 2) != 0)
                          M         bcf     STATUS, RP1
                          M     endif
  00000000                M PREV_BANK = 0
01AC   0008               M         return
                      00297         LABEL?L L00017  
                          M         RST?RP
                          M     if ((PREV_BANK & 1) != 0)
                          M         bcf     STATUS, RP0
                          M     endif
                          M     if ((PREV_BANK & 2) != 0)
                          M         bcf     STATUS, RP1
                          M     endif
  00000000                M PREV_BANK = 0
                          M     ifdef PM_USED
                          M         LALL
                          M L00017
                          M         XALL
                          M     else
01AD                      M L00017
                          M     endif
                      00298 
                      00299 ; C:\PBP\KEYPAD~1.PBP           00058          portb.0=0:portb.1=0:portb.2=1
                      00300         MOVE?CT 000h, _PORTB??0
                          M         CHK?RP  PORTB
                          M     if (((PORTB) & 180h) == 0)
                          M       if (PREV_BANK == 1)
                          M         bcf     STATUS, RP0
                          M       endif
                          M       if (PREV_BANK == 2)
                          M         bcf     STATUS, RP1
                          M       endif
                          M       if (PREV_BANK == 3)
                          M         bcf     STATUS, RP0
                          M         bcf     STATUS, RP1
                          M       endif
  00000000                M PREV_BANK = 0
                          M     endif
                          M 
                          M     if (((PORTB) & 180h) == 80h)
                          M       if (PREV_BANK == 0)
MPASM  5.44                      KEYPAD~1.ASM   4-20-2020  12:51:35         PAGE 113


LOC  OBJECT CODE     LINE SOURCE TEXT
  VALUE

                          M         bsf     STATUS, RP0
                          M       endif
                          M       if (PREV_BANK == 2)
                          M         bsf     STATUS, RP0
                          M         bcf     STATUS, RP1
                          M       endif
                          M       if (PREV_BANK == 3)
                          M         bcf     STATUS, RP1
                          M       endif
                          M PREV_BANK = 1
                          M     endif
                          M 
                          M     if (((PORTB) & 180h) == 100h)
                          M       if (PREV_BANK == 0)
                          M         bsf     STATUS, RP1
                          M       endif
                          M       if (PREV_BANK == 1)
                          M         bcf     STATUS, RP0
                          M         bsf     STATUS, RP1
                          M       endif
                          M       if (PREV_BANK == 3)
                          M         bcf     STATUS, RP0
                          M       endif
                          M PREV_BANK = 2
                          M     endif
                          M 
                          M     if (((PORTB) & 180h) == 180h)
                          M       if (PREV_BANK == 0)
                          M         bsf     STATUS, RP0
                          M         bsf     STATUS, RP1
                          M       endif
                          M       if (PREV_BANK == 1)
                          M         bsf     STATUS, RP1
                          M       endif
                          M       if (PREV_BANK == 2)
                          M         bsf     STATUS, RP0
                          M       endif
                          M PREV_BANK = 3
                          M     endif
                          M     if (((000h) & 1) == 1)
                          M         bsf     PORTB,  000h
                          M     else
01AD   1006               M         bcf     PORTB,  000h
                          M     endif
                      00301 
                      00302 ; C:\PBP\KEYPAD~1.PBP           00058          portb.0=0:portb.1=0:portb.2=1
                      00303         MOVE?CT 000h, _PORTB??1
                          M         CHK?RP  PORTB
                          M     if (((PORTB) & 180h) == 0)
                          M       if (PREV_BANK == 1)
                          M         bcf     STATUS, RP0
                          M       endif
                          M       if (PREV_BANK == 2)
MPASM  5.44                      KEYPAD~1.ASM   4-20-2020  12:51:35         PAGE 114


LOC  OBJECT CODE     LINE SOURCE TEXT
  VALUE

                          M         bcf     STATUS, RP1
                          M       endif
                          M       if (PREV_BANK == 3)
                          M         bcf     STATUS, RP0
                          M         bcf     STATUS, RP1
                          M       endif
  00000000                M PREV_BANK = 0
                          M     endif
                          M 
                          M     if (((PORTB) & 180h) == 80h)
                          M       if (PREV_BANK == 0)
                          M         bsf     STATUS, RP0
                          M       endif
                          M       if (PREV_BANK == 2)
                          M         bsf     STATUS, RP0
                          M         bcf     STATUS, RP1
                          M       endif
                          M       if (PREV_BANK == 3)
                          M         bcf     STATUS, RP1
                          M       endif
                          M PREV_BANK = 1
                          M     endif
                          M 
                          M     if (((PORTB) & 180h) == 100h)
                          M       if (PREV_BANK == 0)
                          M         bsf     STATUS, RP1
                          M       endif
                          M       if (PREV_BANK == 1)
                          M         bcf     STATUS, RP0
                          M         bsf     STATUS, RP1
                          M       endif
                          M       if (PREV_BANK == 3)
                          M         bcf     STATUS, RP0
                          M       endif
                          M PREV_BANK = 2
                          M     endif
                          M 
                          M     if (((PORTB) & 180h) == 180h)
                          M       if (PREV_BANK == 0)
                          M         bsf     STATUS, RP0
                          M         bsf     STATUS, RP1
                          M       endif
                          M       if (PREV_BANK == 1)
                          M         bsf     STATUS, RP1
                          M       endif
                          M       if (PREV_BANK == 2)
                          M         bsf     STATUS, RP0
                          M       endif
                          M PREV_BANK = 3
                          M     endif
                          M     if (((000h) & 1) == 1)
                          M         bsf     PORTB,  001h
                          M     else
MPASM  5.44                      KEYPAD~1.ASM   4-20-2020  12:51:35         PAGE 115


LOC  OBJECT CODE     LINE SOURCE TEXT
  VALUE

01AE   1086               M         bcf     PORTB,  001h
                          M     endif
                      00304 
                      00305 ; C:\PBP\KEYPAD~1.PBP           00058          portb.0=0:portb.1=0:portb.2=1
                      00306         MOVE?CT 001h, _PORTB??2
                          M         CHK?RP  PORTB
                          M     if (((PORTB) & 180h) == 0)
                          M       if (PREV_BANK == 1)
                          M         bcf     STATUS, RP0
                          M       endif
                          M       if (PREV_BANK == 2)
                          M         bcf     STATUS, RP1
                          M       endif
                          M       if (PREV_BANK == 3)
                          M         bcf     STATUS, RP0
                          M         bcf     STATUS, RP1
                          M       endif
  00000000                M PREV_BANK = 0
                          M     endif
                          M 
                          M     if (((PORTB) & 180h) == 80h)
                          M       if (PREV_BANK == 0)
                          M         bsf     STATUS, RP0
                          M       endif
                          M       if (PREV_BANK == 2)
                          M         bsf     STATUS, RP0
                          M         bcf     STATUS, RP1
                          M       endif
                          M       if (PREV_BANK == 3)
                          M         bcf     STATUS, RP1
                          M       endif
                          M PREV_BANK = 1
                          M     endif
                          M 
                          M     if (((PORTB) & 180h) == 100h)
                          M       if (PREV_BANK == 0)
                          M         bsf     STATUS, RP1
                          M       endif
                          M       if (PREV_BANK == 1)
                          M         bcf     STATUS, RP0
                          M         bsf     STATUS, RP1
                          M       endif
                          M       if (PREV_BANK == 3)
                          M         bcf     STATUS, RP0
                          M       endif
                          M PREV_BANK = 2
                          M     endif
                          M 
                          M     if (((PORTB) & 180h) == 180h)
                          M       if (PREV_BANK == 0)
                          M         bsf     STATUS, RP0
                          M         bsf     STATUS, RP1
                          M       endif
MPASM  5.44                      KEYPAD~1.ASM   4-20-2020  12:51:35         PAGE 116


LOC  OBJECT CODE     LINE SOURCE TEXT
  VALUE

                          M       if (PREV_BANK == 1)
                          M         bsf     STATUS, RP1
                          M       endif
                          M       if (PREV_BANK == 2)
                          M         bsf     STATUS, RP0
                          M       endif
                          M PREV_BANK = 3
                          M     endif
                          M     if (((001h) & 1) == 1)
01AF   1506               M         bsf     PORTB,  002h
                          M     else
                          M         bcf     PORTB,  002h
                          M     endif
                      00307 
                      00308 ; C:\PBP\KEYPAD~1.PBP           00059          if portb.3=1 then i=3 : return
                      00309         CMPNE?TCL       _PORTB??3, 001h, L00019
                          M     if ((001h) == 0)
                          M         CLRWDT?
                          M         BIT?GOTO 1, PORTB, 003h,  L00019
                          M     else
                          M       if ((001h) == 1)
                          M         CLRWDT?
                          M     ifndef NO_CLRWDT
01B0   0064               M         clrwdt
                          M     endif
                          M         BIT?GOTO 0, PORTB, 003h,  L00019
                          M     ifdef USE_LINKER
                          M         CLRWDT?
                          M     else
                          M       if ($ == (L00019))
                          M         CLRWDT?
                          M       endif
                          M     endif
                          M 
                          M     ifdef USE_LINKER
                          M       if (CODE_SIZE > 2)
                          M         pagesel L00019
                          M       endif
                          M     else
                          M       if (CODE_SIZE > 2)
                          M         if (((L00019) & 800h) == 0)
01B1   118A               M         bcf     PCLATH, 3
                          M         else
                          M         bsf     PCLATH, 3
                          M         endif
                          M       endif
                          M       if (CODE_SIZE > 4)
                          M         if (((L00019) & 1000h) == 0)
01B2   120A               M         bcf     PCLATH, 4
                          M         else
                          M         bsf     PCLATH, 4
                          M         endif
                          M       endif
MPASM  5.44                      KEYPAD~1.ASM   4-20-2020  12:51:35         PAGE 117


LOC  OBJECT CODE     LINE SOURCE TEXT
  VALUE

                          M     endif
                          M 
                          M     if (((PORTB) & 0ff80h) != 0)
                          M         CHK?RP  PORTB
                          M         bcf     STATUS, DC
                          M       if ((0)      == 0)
                          M         btfss   PORTB, 003h
                          M       else
                          M         btfsc   PORTB, 003h
                          M       endif
                          M         bsf     STATUS, DC
                          M         RST?RP
                          M         btfsc   STATUS, DC
                          M     else
                          M         RST?RP
                          M     if ((PREV_BANK & 1) != 0)
                          M         bcf     STATUS, RP0
                          M     endif
                          M     if ((PREV_BANK & 2) != 0)
                          M         bcf     STATUS, RP1
                          M     endif
  00000000                M PREV_BANK = 0
                          M       if ((0)      == 0)
01B3   1D86               M         btfss   PORTB, 003h
                          M       else
                          M         btfsc   PORTB, 003h
                          M       endif
                          M     endif
                          M 
01B4   29B8               M         goto    L00019
                          M       else
                          M         L?GOTO  L00019
                          M       endif
                          M     endif
                      00310         MOVE?CB 003h, _i
                          M         CHK?RP  _i
                          M     if (((_i)    & 180h) == 0)
                          M       if (PREV_BANK == 1)
                          M         bcf     STATUS, RP0
                          M       endif
                          M       if (PREV_BANK == 2)
                          M         bcf     STATUS, RP1
                          M       endif
                          M       if (PREV_BANK == 3)
                          M         bcf     STATUS, RP0
                          M         bcf     STATUS, RP1
                          M       endif
  00000000                M PREV_BANK = 0
                          M     endif
                          M 
                          M     if (((_i)    & 180h) == 80h)
                          M       if (PREV_BANK == 0)
                          M         bsf     STATUS, RP0
MPASM  5.44                      KEYPAD~1.ASM   4-20-2020  12:51:35         PAGE 118


LOC  OBJECT CODE     LINE SOURCE TEXT
  VALUE

                          M       endif
                          M       if (PREV_BANK == 2)
                          M         bsf     STATUS, RP0
                          M         bcf     STATUS, RP1
                          M       endif
                          M       if (PREV_BANK == 3)
                          M         bcf     STATUS, RP1
                          M       endif
                          M PREV_BANK = 1
                          M     endif
                          M 
                          M     if (((_i)    & 180h) == 100h)
                          M       if (PREV_BANK == 0)
                          M         bsf     STATUS, RP1
                          M       endif
                          M       if (PREV_BANK == 1)
                          M         bcf     STATUS, RP0
                          M         bsf     STATUS, RP1
                          M       endif
                          M       if (PREV_BANK == 3)
                          M         bcf     STATUS, RP0
                          M       endif
                          M PREV_BANK = 2
                          M     endif
                          M 
                          M     if (((_i)    & 180h) == 180h)
                          M       if (PREV_BANK == 0)
                          M         bsf     STATUS, RP0
                          M         bsf     STATUS, RP1
                          M       endif
                          M       if (PREV_BANK == 1)
                          M         bsf     STATUS, RP1
                          M       endif
                          M       if (PREV_BANK == 2)
                          M         bsf     STATUS, RP0
                          M       endif
                          M PREV_BANK = 3
                          M     endif
                          M     if (low (003h) == 0)
                          M         clrf    _i
                          M     else
01B5   3003               M         movlw   low (003h)
01B6   00B8               M         movwf   _i
                          M     endif
                      00311         RETURN? 
                          M     ifdef DEBUG_STACK
                          M         CHK?RP  DEBUG_STACK
                          M         decf    DEBUG_STACK, F
                          M     endif
                          M         RST?RP
                          M     if ((PREV_BANK & 1) != 0)
                          M         bcf     STATUS, RP0
                          M     endif
MPASM  5.44                      KEYPAD~1.ASM   4-20-2020  12:51:35         PAGE 119


LOC  OBJECT CODE     LINE SOURCE TEXT
  VALUE

                          M     if ((PREV_BANK & 2) != 0)
                          M         bcf     STATUS, RP1
                          M     endif
  00000000                M PREV_BANK = 0
01B7   0008               M         return
                      00312         LABEL?L L00019  
                          M         RST?RP
                          M     if ((PREV_BANK & 1) != 0)
                          M         bcf     STATUS, RP0
                          M     endif
                          M     if ((PREV_BANK & 2) != 0)
                          M         bcf     STATUS, RP1
                          M     endif
  00000000                M PREV_BANK = 0
                          M     ifdef PM_USED
                          M         LALL
                          M L00019
                          M         XALL
                          M     else
01B8                      M L00019
                          M     endif
                      00313 
                      00314 ; C:\PBP\KEYPAD~1.PBP           00060          if portb.4=1 then i=6 : return
                      00315         CMPNE?TCL       _PORTB??4, 001h, L00021
                          M     if ((001h) == 0)
                          M         CLRWDT?
                          M         BIT?GOTO 1, PORTB, 004h,  L00021
                          M     else
                          M       if ((001h) == 1)
                          M         CLRWDT?
                          M     ifndef NO_CLRWDT
01B8   0064               M         clrwdt
                          M     endif
                          M         BIT?GOTO 0, PORTB, 004h,  L00021
                          M     ifdef USE_LINKER
                          M         CLRWDT?
                          M     else
                          M       if ($ == (L00021))
                          M         CLRWDT?
                          M       endif
                          M     endif
                          M 
                          M     ifdef USE_LINKER
                          M       if (CODE_SIZE > 2)
                          M         pagesel L00021
                          M       endif
                          M     else
                          M       if (CODE_SIZE > 2)
                          M         if (((L00021) & 800h) == 0)
01B9   118A               M         bcf     PCLATH, 3
                          M         else
                          M         bsf     PCLATH, 3
                          M         endif
MPASM  5.44                      KEYPAD~1.ASM   4-20-2020  12:51:35         PAGE 120


LOC  OBJECT CODE     LINE SOURCE TEXT
  VALUE

                          M       endif
                          M       if (CODE_SIZE > 4)
                          M         if (((L00021) & 1000h) == 0)
01BA   120A               M         bcf     PCLATH, 4
                          M         else
                          M         bsf     PCLATH, 4
                          M         endif
                          M       endif
                          M     endif
                          M 
                          M     if (((PORTB) & 0ff80h) != 0)
                          M         CHK?RP  PORTB
                          M         bcf     STATUS, DC
                          M       if ((0)      == 0)
                          M         btfss   PORTB, 004h
                          M       else
                          M         btfsc   PORTB, 004h
                          M       endif
                          M         bsf     STATUS, DC
                          M         RST?RP
                          M         btfsc   STATUS, DC
                          M     else
                          M         RST?RP
                          M     if ((PREV_BANK & 1) != 0)
                          M         bcf     STATUS, RP0
                          M     endif
                          M     if ((PREV_BANK & 2) != 0)
                          M         bcf     STATUS, RP1
                          M     endif
  00000000                M PREV_BANK = 0
                          M       if ((0)      == 0)
01BB   1E06               M         btfss   PORTB, 004h
                          M       else
                          M         btfsc   PORTB, 004h
                          M       endif
                          M     endif
                          M 
01BC   29C0               M         goto    L00021
                          M       else
                          M         L?GOTO  L00021
                          M       endif
                          M     endif
                      00316         MOVE?CB 006h, _i
                          M         CHK?RP  _i
                          M     if (((_i)    & 180h) == 0)
                          M       if (PREV_BANK == 1)
                          M         bcf     STATUS, RP0
                          M       endif
                          M       if (PREV_BANK == 2)
                          M         bcf     STATUS, RP1
                          M       endif
                          M       if (PREV_BANK == 3)
                          M         bcf     STATUS, RP0
MPASM  5.44                      KEYPAD~1.ASM   4-20-2020  12:51:35         PAGE 121


LOC  OBJECT CODE     LINE SOURCE TEXT
  VALUE

                          M         bcf     STATUS, RP1
                          M       endif
  00000000                M PREV_BANK = 0
                          M     endif
                          M 
                          M     if (((_i)    & 180h) == 80h)
                          M       if (PREV_BANK == 0)
                          M         bsf     STATUS, RP0
                          M       endif
                          M       if (PREV_BANK == 2)
                          M         bsf     STATUS, RP0
                          M         bcf     STATUS, RP1
                          M       endif
                          M       if (PREV_BANK == 3)
                          M         bcf     STATUS, RP1
                          M       endif
                          M PREV_BANK = 1
                          M     endif
                          M 
                          M     if (((_i)    & 180h) == 100h)
                          M       if (PREV_BANK == 0)
                          M         bsf     STATUS, RP1
                          M       endif
                          M       if (PREV_BANK == 1)
                          M         bcf     STATUS, RP0
                          M         bsf     STATUS, RP1
                          M       endif
                          M       if (PREV_BANK == 3)
                          M         bcf     STATUS, RP0
                          M       endif
                          M PREV_BANK = 2
                          M     endif
                          M 
                          M     if (((_i)    & 180h) == 180h)
                          M       if (PREV_BANK == 0)
                          M         bsf     STATUS, RP0
                          M         bsf     STATUS, RP1
                          M       endif
                          M       if (PREV_BANK == 1)
                          M         bsf     STATUS, RP1
                          M       endif
                          M       if (PREV_BANK == 2)
                          M         bsf     STATUS, RP0
                          M       endif
                          M PREV_BANK = 3
                          M     endif
                          M     if (low (006h) == 0)
                          M         clrf    _i
                          M     else
01BD   3006               M         movlw   low (006h)
01BE   00B8               M         movwf   _i
                          M     endif
                      00317         RETURN? 
MPASM  5.44                      KEYPAD~1.ASM   4-20-2020  12:51:35         PAGE 122


LOC  OBJECT CODE     LINE SOURCE TEXT
  VALUE

                          M     ifdef DEBUG_STACK
                          M         CHK?RP  DEBUG_STACK
                          M         decf    DEBUG_STACK, F
                          M     endif
                          M         RST?RP
                          M     if ((PREV_BANK & 1) != 0)
                          M         bcf     STATUS, RP0
                          M     endif
                          M     if ((PREV_BANK & 2) != 0)
                          M         bcf     STATUS, RP1
                          M     endif
  00000000                M PREV_BANK = 0
01BF   0008               M         return
                      00318         LABEL?L L00021  
                          M         RST?RP
                          M     if ((PREV_BANK & 1) != 0)
                          M         bcf     STATUS, RP0
                          M     endif
                          M     if ((PREV_BANK & 2) != 0)
                          M         bcf     STATUS, RP1
                          M     endif
  00000000                M PREV_BANK = 0
                          M     ifdef PM_USED
                          M         LALL
                          M L00021
                          M         XALL
                          M     else
01C0                      M L00021
                          M     endif
                      00319 
                      00320 ; C:\PBP\KEYPAD~1.PBP           00061          if portb.5=1 then i=9 : return
                      00321         CMPNE?TCL       _PORTB??5, 001h, L00023
                          M     if ((001h) == 0)
                          M         CLRWDT?
                          M         BIT?GOTO 1, PORTB, 005h,  L00023
                          M     else
                          M       if ((001h) == 1)
                          M         CLRWDT?
                          M     ifndef NO_CLRWDT
01C0   0064               M         clrwdt
                          M     endif
                          M         BIT?GOTO 0, PORTB, 005h,  L00023
                          M     ifdef USE_LINKER
                          M         CLRWDT?
                          M     else
                          M       if ($ == (L00023))
                          M         CLRWDT?
                          M       endif
                          M     endif
                          M 
                          M     ifdef USE_LINKER
                          M       if (CODE_SIZE > 2)
                          M         pagesel L00023
MPASM  5.44                      KEYPAD~1.ASM   4-20-2020  12:51:35         PAGE 123


LOC  OBJECT CODE     LINE SOURCE TEXT
  VALUE

                          M       endif
                          M     else
                          M       if (CODE_SIZE > 2)
                          M         if (((L00023) & 800h) == 0)
01C1   118A               M         bcf     PCLATH, 3
                          M         else
                          M         bsf     PCLATH, 3
                          M         endif
                          M       endif
                          M       if (CODE_SIZE > 4)
                          M         if (((L00023) & 1000h) == 0)
01C2   120A               M         bcf     PCLATH, 4
                          M         else
                          M         bsf     PCLATH, 4
                          M         endif
                          M       endif
                          M     endif
                          M 
                          M     if (((PORTB) & 0ff80h) != 0)
                          M         CHK?RP  PORTB
                          M         bcf     STATUS, DC
                          M       if ((0)      == 0)
                          M         btfss   PORTB, 005h
                          M       else
                          M         btfsc   PORTB, 005h
                          M       endif
                          M         bsf     STATUS, DC
                          M         RST?RP
                          M         btfsc   STATUS, DC
                          M     else
                          M         RST?RP
                          M     if ((PREV_BANK & 1) != 0)
                          M         bcf     STATUS, RP0
                          M     endif
                          M     if ((PREV_BANK & 2) != 0)
                          M         bcf     STATUS, RP1
                          M     endif
  00000000                M PREV_BANK = 0
                          M       if ((0)      == 0)
01C3   1E86               M         btfss   PORTB, 005h
                          M       else
                          M         btfsc   PORTB, 005h
                          M       endif
                          M     endif
                          M 
01C4   29C8               M         goto    L00023
                          M       else
                          M         L?GOTO  L00023
                          M       endif
                          M     endif
                      00322         MOVE?CB 009h, _i
                          M         CHK?RP  _i
                          M     if (((_i)    & 180h) == 0)
MPASM  5.44                      KEYPAD~1.ASM   4-20-2020  12:51:35         PAGE 124


LOC  OBJECT CODE     LINE SOURCE TEXT
  VALUE

                          M       if (PREV_BANK == 1)
                          M         bcf     STATUS, RP0
                          M       endif
                          M       if (PREV_BANK == 2)
                          M         bcf     STATUS, RP1
                          M       endif
                          M       if (PREV_BANK == 3)
                          M         bcf     STATUS, RP0
                          M         bcf     STATUS, RP1
                          M       endif
  00000000                M PREV_BANK = 0
                          M     endif
                          M 
                          M     if (((_i)    & 180h) == 80h)
                          M       if (PREV_BANK == 0)
                          M         bsf     STATUS, RP0
                          M       endif
                          M       if (PREV_BANK == 2)
                          M         bsf     STATUS, RP0
                          M         bcf     STATUS, RP1
                          M       endif
                          M       if (PREV_BANK == 3)
                          M         bcf     STATUS, RP1
                          M       endif
                          M PREV_BANK = 1
                          M     endif
                          M 
                          M     if (((_i)    & 180h) == 100h)
                          M       if (PREV_BANK == 0)
                          M         bsf     STATUS, RP1
                          M       endif
                          M       if (PREV_BANK == 1)
                          M         bcf     STATUS, RP0
                          M         bsf     STATUS, RP1
                          M       endif
                          M       if (PREV_BANK == 3)
                          M         bcf     STATUS, RP0
                          M       endif
                          M PREV_BANK = 2
                          M     endif
                          M 
                          M     if (((_i)    & 180h) == 180h)
                          M       if (PREV_BANK == 0)
                          M         bsf     STATUS, RP0
                          M         bsf     STATUS, RP1
                          M       endif
                          M       if (PREV_BANK == 1)
                          M         bsf     STATUS, RP1
                          M       endif
                          M       if (PREV_BANK == 2)
                          M         bsf     STATUS, RP0
                          M       endif
                          M PREV_BANK = 3
MPASM  5.44                      KEYPAD~1.ASM   4-20-2020  12:51:35         PAGE 125


LOC  OBJECT CODE     LINE SOURCE TEXT
  VALUE

                          M     endif
                          M     if (low (009h) == 0)
                          M         clrf    _i
                          M     else
01C5   3009               M         movlw   low (009h)
01C6   00B8               M         movwf   _i
                          M     endif
                      00323         RETURN? 
                          M     ifdef DEBUG_STACK
                          M         CHK?RP  DEBUG_STACK
                          M         decf    DEBUG_STACK, F
                          M     endif
                          M         RST?RP
                          M     if ((PREV_BANK & 1) != 0)
                          M         bcf     STATUS, RP0
                          M     endif
                          M     if ((PREV_BANK & 2) != 0)
                          M         bcf     STATUS, RP1
                          M     endif
  00000000                M PREV_BANK = 0
01C7   0008               M         return
                      00324         LABEL?L L00023  
                          M         RST?RP
                          M     if ((PREV_BANK & 1) != 0)
                          M         bcf     STATUS, RP0
                          M     endif
                          M     if ((PREV_BANK & 2) != 0)
                          M         bcf     STATUS, RP1
                          M     endif
  00000000                M PREV_BANK = 0
                          M     ifdef PM_USED
                          M         LALL
                          M L00023
                          M         XALL
                          M     else
01C8                      M L00023
                          M     endif
                      00325 
                      00326 ; C:\PBP\KEYPAD~1.PBP           00063   goto phone
                      00327         GOTO?L  _phone
                          M         L?GOTO  _phone
                          M     ifdef USE_LINKER
                          M         CLRWDT?
                          M     else
                          M       if ($ == (_phone))
                          M         CLRWDT?
                          M       endif
                          M     endif
                          M 
                          M         RST?RP
                          M     if ((PREV_BANK & 1) != 0)
                          M         bcf     STATUS, RP0
                          M     endif
MPASM  5.44                      KEYPAD~1.ASM   4-20-2020  12:51:35         PAGE 126


LOC  OBJECT CODE     LINE SOURCE TEXT
  VALUE

                          M     if ((PREV_BANK & 2) != 0)
                          M         bcf     STATUS, RP1
                          M     endif
  00000000                M PREV_BANK = 0
                          M 
                          M     ifdef USE_LINKER
                          M       if (CODE_SIZE > 2)
                          M         pagesel _phone
                          M       endif
                          M     else
                          M       if ((_phone) < 1)
                          M         if (CODE_SIZE > 2)
                          M           if (((_phone) & 800h) == 0)
                          M         bcf     PCLATH, 3
                          M           else
                          M         bsf     PCLATH, 3
                          M           endif
                          M         endif
                          M         if (CODE_SIZE > 4)
                          M           if (((_phone) & 1000h) == 0)
                          M         bcf     PCLATH, 4
                          M           else
                          M         bsf     PCLATH, 4
                          M           endif
                          M         endif
                          M       else
                          M         if ((_phone) > $)
                          M           if (CODE_SIZE > 2)
                          M             if (((_phone) & 800h) == 0)
                          M         bcf     PCLATH, 3
                          M             else
                          M         bsf     PCLATH, 3
                          M             endif
                          M           endif
                          M           if (CODE_SIZE > 4)
                          M             if (((_phone) & 1000h) == 0)
                          M         bcf     PCLATH, 4
                          M             else
                          M         bsf     PCLATH, 4
                          M             endif
                          M           endif
                          M         else
                          M           if (CODE_SIZE > 2)
                          M             if (((_phone) & 1800h) == 0)
01C8   018A               M         clrf    PCLATH
                          M             else
                          M               if (((_phone) & 800h) == 0)
                          M         bcf     PCLATH, 3
                          M               else
                          M         bsf     PCLATH, 3
                          M               endif
                          M               if (CODE_SIZE > 4)
                          M                 if (((_phone) & 1000h) == 0)
MPASM  5.44                      KEYPAD~1.ASM   4-20-2020  12:51:35         PAGE 127


LOC  OBJECT CODE     LINE SOURCE TEXT
  VALUE

                          M         bcf     PCLATH, 4
                          M                 else
                          M         bsf     PCLATH, 4
                          M                 endif
                          M               endif
                          M             endif
                          M           endif
                          M         endif
                          M       endif
                          M     endif
                          M 
01C9   296C               M         goto    _phone
                      00328 
                      00329         END
MPASM  5.44                      KEYPAD~1.ASM   4-20-2020  12:51:35         PAGE 128


SYMBOL TABLE
  LABEL                             VALUE 

ACKDT                             00000005
ACKEN                             00000004
ACKSTAT                           00000006
ADCON0                            0000001F
ADCON1                            0000009F
ADCS0                             00000006
ADCS1                             00000007
ADC_BITS                          00000008
ADC_CLOCK                         00000003
ADC_SAMPLEUS                      00000032
ADD?BCB                           
ADDEN                             00000003
ADFM                              00000007
ADIE                              00000006
ADIF                              00000006
ADON                              00000000
ADRESH                            0000001E
ADRESL                            0000009E
BANK0_END                         0000007F
BANK0_START                       00000020
BANK1_END                         000000EF
BANK1_START                       000000A0
BANK2_END                         0000016F
BANK2_START                       00000110
BANK3_END                         000001EF
BANK3_START                       00000190
BCLIE                             00000003
BCLIF                             00000003
BF                                00000000
BIT?FLIP                          
BIT?FW                            
BIT?GOTO                          
BIT?R1                            
BIT?R2                            
BIT?W                             
BRGH                              00000002
BUTTON_PAUSE                      0000000A
C                                 00000000
CCP1CON                           00000017
CCP1IE                            00000002
CCP1IF                            00000002
CCP1M0                            00000000
CCP1M1                            00000001
CCP1M2                            00000002
CCP1M3                            00000003
CCP1X                             00000005
CCP1Y                             00000004
CCP1_BIT                          00000002
CCP1_REG                          00000007
CCP2CON                           0000001D
CCP2IE                            00000000
CCP2IF                            00000000
CCP2M0                            00000000
MPASM  5.44                      KEYPAD~1.ASM   4-20-2020  12:51:35         PAGE 129


SYMBOL TABLE
  LABEL                             VALUE 

CCP2M1                            00000001
CCP2M2                            00000002
CCP2M3                            00000003
CCP2X                             00000005
CCP2Y                             00000004
CCP2_BIT                          00000001
CCP2_REG                          00000007
CCPR1                             00000015
CCPR1H                            00000016
CCPR1L                            00000015
CCPR2                             0000001B
CCPR2H                            0000001C
CCPR2L                            0000001B
CHK?RP                            
CHS0                              00000003
CHS1                              00000004
CHS2                              00000005
CKE                               00000006
CKP                               00000004
CLRWDT?                           
CLRWDT?NOP                        
CMPGT?BCL                         
CMPNE?TCL                         
CODE_SIZE                         8
CREN                              00000004
CSRC                              00000007
D                                 00000005
DATA_ADDRESS                      00000005
DC                                00000001
DEBUGIN_BIT                       00000000
DEBUGIN_MODE                      00000001
DEBUGIN_REG                       00000006
DEBUG_BAUD                        00000960
DEBUG_BIT                         00000000
DEBUG_DELAY                       00000193
DEBUG_MODE                        00000001
DEBUG_REG                         00000006
DIV                               000000D6
DIV32DIV                          000000D8
DIV_USED                          00000001
DONE                              000000F7
DONERET                           000000FB
DONE_USED                         00000001
D_A                               00000005
D_NOT_A                           00000005
EEADR                             0000010D
EEADRH                            0000010F
EECON1                            0000018C
EECON2                            0000018D
EEDATA                            0000010C
EEDATH                            0000010E
EEIE                              00000004
EEIF                              00000004
MPASM  5.44                      KEYPAD~1.ASM   4-20-2020  12:51:35         PAGE 130


SYMBOL TABLE
  LABEL                             VALUE 

EEPGD                             00000007
EEPROM_END                        000021FF
EEPROM_START                      00002100
F                                 00000001
FERR                              00000002
FLAGS                             00000032
FLAGS_USED                        00000001
FSR                               00000004
GCEN                              00000007
GIE                               00000007
GO                                00000002
GOP                               00000033
GOSUB?L                           
GOTO?L                            
GO_DONE                           00000002
GO_NOT_DONE                       00000002
HSERINIT_USED                     00000001
HSEROUT                           00000003
HSEROUT?C                         
HSEROUTCOUNT?C                    
HSEROUTDEC?                       
HSEROUTJ                          00000002
HSEROUTJ_USED                     00000001
HSEROUTNUM?B                      
HSEROUT_USED                      00000001
HSER_BAUD                         9600
HSER_BITS                         00000008
HSER_CLROERR                      1
HSER_RCSTA                        90h
HSER_SPBRG                        00000019
HSER_TXSTA                        24h
I2CFIRSTFLAG                      FLAGS, 2
I2CREADFLAG                       FLAGS, 3
I2CSTOPFLAG                       FLAGS, 5
I2CSTOPSTRFLAG                    FLAGS, 6
I2CWRITEFLAG                      FLAGS, 4
I2C_DATA                          00000005
I2C_READ                          00000002
I2C_START                         00000003
I2C_STOP                          00000004
IBF                               00000007
IBOV                              00000005
INDF                              00000000
INIT                              000000FC
INTCON                            0000000B
INTE                              00000004
INTEDG                            00000006
INTF                              00000001
IRP                               00000007
JUMPMAN                           000000F2
JUMPMAN_USED                      00000001
L00001                            00000117
L00002                            00000138
MPASM  5.44                      KEYPAD~1.ASM   4-20-2020  12:51:35         PAGE 131


SYMBOL TABLE
  LABEL                             VALUE 

L00003                            00000146
L00004                            00000165
L00005                            0000017B
L00007                            00000183
L00009                            0000018B
L00011                            00000196
L00013                            0000019E
L00015                            000001A6
L00017                            000001AD
L00019                            000001B8
L00021                            000001C0
L00023                            000001C8
L?CALL                            
L?GOTO                            
LABEL?L                           
LCDCDFLAG                         FLAGS, 0
LCDINITFLAG                       FLAGS, 1
LCDOUT                            00000028
LCDOUT?B                          
LCDOUT?C                          
LCDOUTD?B                         
LCDOUTDEC                         00000009
LCDOUTDECL                        0000000A
LCDOUTDECL_USED                   00000001
LCDOUTDEC_USED                    00000001
LCDOUT_USED                       00000001
LCD_BITS                          8
LCD_COMMANDUS                     000007D0
LCD_DATAUS                        00000032
LCD_DBIT                          0
LCD_DREG                          PORTD
LCD_EBIT                          2
LCD_EREG                          PORTE
LCD_LINES                         00000002
LCD_RSBIT                         0
LCD_RSREG                         PORTE
LCD_RWBIT                         00000000
LCD_RWREG                         00000009
MOVE?AB                           
MOVE?AT                           
MOVE?AW                           
MOVE?AWW                          
MOVE?BA                           
MOVE?BB                           
MOVE?BT                           
MOVE?BW                           
MOVE?CA                           
MOVE?CB                           
MOVE?CT                           
MOVE?CW                           
MOVE?TA                           
MOVE?TB                           
MOVE?TT                           
MPASM  5.44                      KEYPAD~1.ASM   4-20-2020  12:51:35         PAGE 132


SYMBOL TABLE
  LABEL                             VALUE 

MOVE?TW                           
MOVE?WA                           
MOVE?WB                           
MOVE?WT                           
MOVE?WW                           
MOVE?WWA                          
NEXT?BCL                          
NOT_A                             00000005
NOT_ADDRESS                       00000005
NOT_BO                            00000000
NOT_BOR                           00000000
NOT_DONE                          00000002
NOT_PD                            00000003
NOT_POR                           00000001
NOT_RBPU                          00000007
NOT_RC8                           00000006
NOT_T1SYNC                        00000002
NOT_TO                            00000004
NOT_TX8                           00000006
NOT_W                             00000002
NOT_WRITE                         00000002
OBF                               00000006
OERR                              00000001
OPTION_REG                        00000081
OSC                               00000004
OSC_VALID                         00000001
P                                 00000004
PAUSE                             000000B4
PAUSE?C                           
PAUSEL                            000000B5
PAUSEUS                           000000C1
PAUSEUSL                          000000C2
PAUSEUS_USED                      00000001
PAUSE_DELAY                       000003DF
PAUSE_USED                        00000001
PCFG0                             00000000
PCFG1                             00000001
PCFG2                             00000002
PCFG3                             00000003
PCL                               00000002
PCLATH                            0000000A
PCON                              0000008E
PEIE                              00000006
PEN                               00000002
PIE1                              0000008C
PIE2                              0000008D
PIR1                              0000000C
PIR2                              0000000D
PORTA                             00000005
PORTB                             00000006
PORTC                             00000007
PORTD                             00000008
PORTE                             00000009
MPASM  5.44                      KEYPAD~1.ASM   4-20-2020  12:51:35         PAGE 133


SYMBOL TABLE
  LABEL                             VALUE 

PR2                               00000092
PREV_BANK                         00000000
PS0                               00000000
PS1                               00000001
PS2                               00000002
PSA                               00000003
PSPIE                             00000007
PSPIF                             00000007
PSPMODE                           00000004
R                                 00000002
R0                                00000020
R1                                00000022
R2                                00000024
R3                                00000026
R4                                00000028
R5                                0000002A
R6                                0000002C
R7                                0000002E
R8                                00000030
RA0                               00000000
RA1                               00000001
RA2                               00000002
RA3                               00000003
RA4                               00000004
RA5                               00000005
RAM_BANKS                         00000004
RAM_END                           000001EF
RAM_START                         00000020
RB0                               00000000
RB1                               00000001
RB2                               00000002
RB3                               00000003
RB4                               00000004
RB5                               00000005
RB6                               00000006
RB7                               00000007
RBIE                              00000003
RBIF                              00000000
RC0                               00000000
RC1                               00000001
RC2                               00000002
RC3                               00000003
RC4                               00000004
RC5                               00000005
RC6                               00000006
RC7                               00000007
RC8_9                             00000006
RC9                               00000006
RCD8                              00000000
RCEN                              00000003
RCIE                              00000005
RCIF                              00000005
RCREG                             0000001A
MPASM  5.44                      KEYPAD~1.ASM   4-20-2020  12:51:35         PAGE 134


SYMBOL TABLE
  LABEL                             VALUE 

RCSTA                             00000018
RD                                00000000
RD0                               00000000
RD1                               00000001
RD2                               00000002
RD3                               00000003
RD4                               00000004
RD5                               00000005
RD6                               00000006
RD7                               00000007
RE0                               00000000
RE1                               00000001
RE2                               00000002
READ                              0000009A
READ?B                            
READADDRESS?B                     
READINC                           000000A0
READ_USED                         00000001
READ_WRITE                        00000002
RESET_ORG                         00000000
RETURN?                           
RM1                               00000034
RM2                               00000035
RP0                               00000005
RP1                               00000006
RR1                               00000036
RR2                               00000037
RSEN                              00000001
RST?RP                            
RX9                               00000006
RX9D                              00000000
R_NOT_W                           00000002
R_W                               00000002
S                                 00000003
SEN                               00000000
SEROUT2DEC                        0000006C
SEROUT2DEC_USED                   00000001
SEROUT2SEND                       00000089
SEROUT2SEND_USED                  00000001
SMP                               00000007
SPBRG                             00000099
SPEN                              00000007
SREN                              00000005
SSPADD                            00000093
SSPBUF                            00000013
SSPCON                            00000014
SSPCON2                           00000091
SSPEN                             00000005
SSPIE                             00000003
SSPIF                             00000003
SSPM0                             00000000
SSPM1                             00000001
SSPM2                             00000002
MPASM  5.44                      KEYPAD~1.ASM   4-20-2020  12:51:35         PAGE 135


SYMBOL TABLE
  LABEL                             VALUE 

SSPM3                             00000003
SSPOV                             00000006
SSPSTAT                           00000094
STATUS                            00000003
SYNC                              00000004
T0CS                              00000005
T0IE                              00000005
T0IF                              00000002
T0SE                              00000004
T1CKPS0                           00000004
T1CKPS1                           00000005
T1CON                             00000010
T1INSYNC                          00000002
T1OSCEN                           00000003
T1SYNC                            00000002
T2CKPS0                           00000000
T2CKPS1                           00000001
T2CON                             00000012
TMR0                              00000001
TMR0IE                            00000005
TMR0IF                            00000002
TMR1                              0000000E
TMR1CS                            00000001
TMR1H                             0000000F
TMR1IE                            00000000
TMR1IF                            00000000
TMR1L                             0000000E
TMR1ON                            00000000
TMR2                              00000011
TMR2IE                            00000001
TMR2IF                            00000001
TMR2ON                            00000002
TOUTPS0                           00000003
TOUTPS1                           00000004
TOUTPS2                           00000005
TOUTPS3                           00000006
TRISA                             00000085
TRISA0                            00000000
TRISA1                            00000001
TRISA2                            00000002
TRISA3                            00000003
TRISA4                            00000004
TRISA5                            00000005
TRISB                             00000086
TRISB0                            00000000
TRISB1                            00000001
TRISB2                            00000002
TRISB3                            00000003
TRISB4                            00000004
TRISB5                            00000005
TRISB6                            00000006
TRISB7                            00000007
TRISC                             00000087
MPASM  5.44                      KEYPAD~1.ASM   4-20-2020  12:51:35         PAGE 136


SYMBOL TABLE
  LABEL                             VALUE 

TRISC0                            00000000
TRISC1                            00000001
TRISC2                            00000002
TRISC3                            00000003
TRISC4                            00000004
TRISC5                            00000005
TRISC6                            00000006
TRISC7                            00000007
TRISD                             00000088
TRISD0                            00000000
TRISD1                            00000001
TRISD2                            00000002
TRISD3                            00000003
TRISD4                            00000004
TRISD5                            00000005
TRISD6                            00000006
TRISD7                            00000007
TRISE                             00000089
TRISE0                            00000000
TRISE1                            00000001
TRISE2                            00000002
TRMT                              00000001
TX8_9                             00000006
TX9                               00000006
TX9D                              00000000
TXD8                              00000000
TXEN                              00000005
TXIE                              00000004
TXIF                              00000004
TXREG                             00000019
TXSTA                             00000098
UA                                00000001
W                                 00000000
WCOL                              00000007
WR                                00000001
WREN                              00000002
WRERR                             00000003
WRITE                             000000A4
WRITE?B                           
WRITEADDRESS?B                    
WRITEZ                            000000A3
WRITE_USED                        00000001
Z                                 00000002
_BODEN_OFF                        00003FBF
_BODEN_ON                         00003FFF
_BOREN_OFF                        00003FBF
_BOREN_ON                         00003FFF
_CONFIG                           00002007
_CPD_OFF                          00003FFF
_CPD_ON                           00003EFF
_CP_ALL                           00000FCF
_CP_HALF                          00001FDF
_CP_OFF                           00003FFF
MPASM  5.44                      KEYPAD~1.ASM   4-20-2020  12:51:35         PAGE 137


SYMBOL TABLE
  LABEL                             VALUE 

_CP_UPPER_256                     00002FEF
_DEBUG_OFF                        00003FFF
_DEBUG_ON                         000037FF
_DEVID1                           00002006
_FOSC_EXTRC                       00003FFF
_FOSC_HS                          00003FFE
_FOSC_LP                          00003FFC
_FOSC_XT                          00003FFD
_HS_OSC                           00003FFE
_IDLOC0                           00002000
_IDLOC1                           00002001
_IDLOC2                           00002002
_IDLOC3                           00002003
_LP_OSC                           00003FFC
_LVP_OFF                          00003F7F
_LVP_ON                           00003FFF
_PORTB??0                         PORTB, 000h
_PORTB??1                         PORTB, 001h
_PORTB??2                         PORTB, 002h
_PORTB??3                         PORTB, 003h
_PORTB??4                         PORTB, 004h
_PORTB??5                         PORTB, 005h
_PORTB??6                         PORTB, 006h
_PORTE??1                         PORTE, 001h
_PORTH                            00000007
_PORTL                            00000006
_PWRTE_OFF                        00003FFF
_PWRTE_ON                         00003FF7
_RC_OSC                           00003FFF
_TRISH                            00000087
_TRISL                            00000086
_USED                             00000001
_WDTE_OFF                         00003FFB
_WDTE_ON                          00003FFF
_WDT_OFF                          00003FFB
_WDT_ON                           00003FFF
_WRT_ENABLE_OFF                   00003DFF
_WRT_ENABLE_ON                    00003FFF
_WRT_OFF                          00003DFF
_WRT_ON                           00003FFF
_XT_OSC                           00003FFD
__16F877                          00000001
_i                                00000038
_j                                00000039
_k                                0000003A
_l                                0000003B
_label                            0000010E
_oku                              00000145
_phone                            0000016C
_yaz                              0000013D
divloop                           000000DA
divok                             000000EC
lcdchkcd                          0000005E
MPASM  5.44                      KEYPAD~1.ASM   4-20-2020  12:51:35         PAGE 138


SYMBOL TABLE
  LABEL                             VALUE 

lcdloop                           00000063
lcdout1                           00000050
lcdouta                           00000027
lcdoutcom                         0000004F
lcdoutdig                         0000001C
lcdsend                           00000063
main                              00000104
pauseloop                         000000B6
pauseusdone                       000000D5
pauseush                          000000CB
pauseusloop                       000000C8
serout2ddig                       00000082
serout2send1                      00000093
writeloop                         000000AE


MEMORY USAGE MAP ('X' = Used,  '-' = Unused)

0000 : XXXXXXXXXXXXXXXX XXXXXXXXXXXXXXXX XXXXXXXXXXXXXXXX XXXXXXXXXXXXXXXX
0040 : XXXXXXXXXXXXXXXX XXXXXXXXXXXXXXXX XXXXXXXXXXXXXXXX XXXXXXXXXXXXXXXX
0080 : XXXXXXXXXXXXXXXX XXXXXXXXXXXXXXXX XXXXXXXXXXXXXXXX XXXXXXXXXXXXXXXX
00C0 : XXXXXXXXXXXXXXXX XXXXXXXXXXXXXXXX XXXXXXXXXXXXXXXX XXXXXXXXXXXXXXXX
0100 : XXXXXXXXXXXXXXXX XXXXXXXXXXXXXXXX XXXXXXXXXXXXXXXX XXXXXXXXXXXXXXXX
0140 : XXXXXXXXXXXXXXXX XXXXXXXXXXXXXXXX XXXXXXXXXXXXXXXX XXXXXXXXXXXXXXXX
0180 : XXXXXXXXXXXXXXXX XXXXXXXXXXXXXXXX XXXXXXXXXXXXXXXX XXXXXXXXXXXXXXXX
01C0 : XXXXXXXXXX------ ---------------- ---------------- ----------------
2000 : -------X-------- ---------------- ---------------- ----------------

All other memory blocks unused.

Program Memory Words Used:   458
Program Memory Words Free:  7734


Errors   :     0
Warnings :     0 reported,     0 suppressed
Messages :     0 reported,    21 suppressed

